

Microchip MPLAB XC8 Assembler V3.10 build 20250813170317 
                                                                                               Sun Jan 11 12:29:15 2026

Microchip MPLAB XC8 C Compiler v3.10 (Free license) build 20250813170317 Og1 
     1                           	processor	16F877A
     2                           	pagewidth 120
     3                           	opt	flic
     4                           	psect	idataBANK0,global,class=CODE,space=0,delta=2,noexec
     5                           	psect	idataBANK1,global,class=CODE,space=0,delta=2,noexec
     6                           	psect	strings,global,class=STRING,space=0,delta=2,noexec
     7                           	psect	stringtext,global,reloc=256,class=STRCODE,space=0,delta=2,noexec
     8                           	psect	cinit,global,class=CODE,space=0,merge=1,delta=2
     9                           	psect	bssBANK0,global,class=BANK0,space=1,delta=1,noexec
    10                           	psect	dataBANK0,global,class=BANK0,space=1,delta=1,noexec
    11                           	psect	bssBANK1,global,class=BANK1,space=1,delta=1,noexec
    12                           	psect	dataBANK1,global,class=BANK1,space=1,delta=1,noexec
    13                           	psect	inittext,global,class=CODE,space=0,delta=2
    14                           	psect	clrtext,global,class=CODE,space=0,delta=2
    15                           	psect	cstackCOMMON,global,class=COMMON,space=1,delta=1,noexec
    16                           	psect	cstackBANK0,global,class=BANK0,space=1,delta=1,noexec
    17                           	psect	maintext,global,class=CODE,space=0,split=1,delta=2
    18                           	psect	text1,local,class=CODE,space=0,merge=1,delta=2
    19                           	psect	text2,local,class=CODE,space=0,merge=1,delta=2,group=1
    20                           	psect	text3,local,class=CODE,space=0,merge=1,delta=2
    21                           	psect	text4,local,class=CODE,space=0,merge=1,delta=2,group=1
    22                           	psect	text5,local,class=CODE,space=0,merge=1,delta=2,group=1
    23                           	psect	text6,local,class=CODE,space=0,merge=1,delta=2,group=1
    24                           	psect	text7,local,class=CODE,space=0,merge=1,delta=2
    25                           	psect	text8,local,class=CODE,space=0,merge=1,delta=2
    26                           	psect	text9,local,class=CODE,space=0,merge=1,delta=2
    27                           	psect	text10,local,class=CODE,space=0,merge=1,delta=2
    28                           	psect	text11,local,class=CODE,space=0,merge=1,delta=2
    29                           	psect	text12,local,class=CODE,space=0,merge=1,delta=2,group=1
    30                           	psect	text13,local,class=CODE,space=0,merge=1,delta=2
    31                           	psect	text14,local,class=CODE,space=0,merge=1,delta=2
    32                           	psect	text15,local,class=CODE,space=0,merge=1,delta=2
    33                           	psect	text16,local,class=CODE,space=0,merge=1,delta=2
    34                           	psect	text17,local,class=CODE,space=0,merge=1,delta=2
    35                           	psect	text18,local,class=CODE,space=0,merge=1,delta=2
    36                           	psect	text19,local,class=CODE,space=0,merge=1,delta=2
    37                           	psect	text20,local,class=CODE,space=0,merge=1,delta=2
    38                           	psect	text21,local,class=CODE,space=0,merge=1,delta=2
    39                           	psect	text22,local,class=CODE,space=0,merge=1,delta=2
    40                           	psect	text23,local,class=CODE,space=0,merge=1,delta=2
    41                           	psect	text24,local,class=CODE,space=0,merge=1,delta=2
    42                           	psect	text25,local,class=CODE,space=0,merge=1,delta=2
    43                           	psect	text26,local,class=CODE,space=0,merge=1,delta=2
    44                           	psect	text27,local,class=CODE,space=0,merge=1,delta=2
    45                           	psect	text28,local,class=CODE,space=0,merge=1,delta=2
    46                           	psect	text29,local,class=CODE,space=0,merge=1,delta=2
    47                           	psect	text30,local,class=CODE,space=0,merge=1,delta=2
    48                           	psect	text31,local,class=CODE,space=0,merge=1,delta=2
    49                           	psect	text32,local,class=CODE,space=0,merge=1,delta=2
    50                           	psect	text33,local,class=CODE,space=0,merge=1,delta=2
    51                           	psect	text34,local,class=CODE,space=0,merge=1,delta=2
    52                           	psect	text35,local,class=CODE,space=0,merge=1,delta=2
    53                           	psect	text36,local,class=CODE,space=0,merge=1,delta=2,group=1
    54                           	psect	text37,local,class=CODE,space=0,merge=1,delta=2,group=1
    55                           	psect	text38,local,class=CODE,space=0,merge=1,delta=2,group=1
    56                           	psect	text39,local,class=CODE,space=0,merge=1,delta=2,group=1
    57                           	psect	text40,local,class=CODE,space=0,merge=1,delta=2,group=1
    58                           	psect	text41,local,class=CODE,space=0,merge=1,delta=2
    59                           	psect	text42,local,class=CODE,space=0,merge=1,delta=2
    60                           	psect	text43,local,class=CODE,space=0,merge=1,delta=2
    61                           	psect	text44,local,class=CODE,space=0,merge=1,delta=2
    62                           	psect	text45,local,class=CODE,space=0,merge=1,delta=2
    63                           	psect	text46,local,class=CODE,space=0,merge=1,delta=2
    64                           	psect	text47,local,class=CODE,space=0,merge=1,delta=2
    65                           	psect	idloc,global,abs,ovrld,class=IDLOC,space=5,delta=2,noexec
    66                           	psect	config,global,abs,ovrld,class=CONFIG,space=4,delta=2,noexec
    67                           	dabs	1,0x7E,2
    68     0000                     
    69                           ; Version 2.40
    70                           ; Generated 17/11/2021 GMT
    71                           ; 
    72                           ; Copyright © 2021, Microchip Technology Inc. and its subsidiaries ("Microchip")
    73                           ; All rights reserved.
    74                           ; 
    75                           ; This software is developed by Microchip Technology Inc. and its subsidiaries ("Microch
      +                          ip").
    76                           ; 
    77                           ; Redistribution and use in source and binary forms, with or without modification, are
    78                           ; permitted provided that the following conditions are met:
    79                           ; 
    80                           ;     1. Redistributions of source code must retain the above copyright notice, this lis
      +                          t of
    81                           ;        conditions and the following disclaimer.
    82                           ; 
    83                           ;     2. Redistributions in binary form must reproduce the above copyright notice, this 
      +                          list
    84                           ;        of conditions and the following disclaimer in the documentation and/or other
    85                           ;        materials provided with the distribution. Publication is not required when
    86                           ;        this file is used in an embedded application.
    87                           ; 
    88                           ;     3. Microchip's name may not be used to endorse or promote products derived from th
      +                          is
    89                           ;        software without specific prior written permission.
    90                           ; 
    91                           ; THIS SOFTWARE IS PROVIDED BY MICROCHIP "AS IS" AND ANY EXPRESS OR IMPLIED WARRANTIES,
    92                           ; INCLUDING, BUT NOT LIMITED TO, THE IMPLIED WARRANTIES OF MERCHANTABILITY AND FITNESS F
      +                          OR
    93                           ; PURPOSE ARE DISCLAIMED.  IN NO EVENT SHALL MICROCHIP BE LIABLE FOR ANY DIRECT, INDIREC
      +                          T,
    94                           ; INCIDENTAL, SPECIAL, EXEMPLARY, OR CONSEQUENTIAL DAMAGES (INCLUDING BUT NOT LIMITED TO
    95                           ; PROCUREMENT OF SUBSTITUTE GOODS OR SERVICES; LOSS OF USE, DATA OR PROFITS; OR BUSINESS
    96                           ; INTERRUPTION) HOWSOEVER CAUSED AND ON ANY THEORY OF LIABILITY, WHETHER IN CONTRACT, ST
      +                          RICT
    97                           ; LIABILITY, OR TORT (INCLUDING NEGLIGENCE OR OTHERWISE) ARISING IN ANY WAY OUT OF THE U
      +                          SE OF
    98                           ; THIS SOFTWARE, EVEN IF ADVISED OF THE POSSIBILITY OF SUCH DAMAGE.
    99                           ; 
   100                           ; 
   101                           ; Code-generator required, PIC16F877A Definitions
   102                           ; 
   103                           ; SFR Addresses
   104     0004                     fsr             equ	4
   105     0004                     fsr0            equ	4
   106     0000                     indf            equ	0
   107     0000                     indf0           equ	0
   108     0002                     pc              equ	2
   109     0002                     pcl             equ	2
   110     000A                     pclath          equ	10
   111     0003                     status          equ	3
   112     0000                     INDF            equ	0	;# 
   113     0001                     TMR0            equ	1	;# 
   114     0002                     PCL             equ	2	;# 
   115     0003                     STATUS          equ	3	;# 
   116     0004                     FSR             equ	4	;# 
   117     0005                     PORTA           equ	5	;# 
   118     0006                     PORTB           equ	6	;# 
   119     0007                     PORTC           equ	7	;# 
   120     0008                     PORTD           equ	8	;# 
   121     0009                     PORTE           equ	9	;# 
   122     000A                     PCLATH          equ	10	;# 
   123     000B                     INTCON          equ	11	;# 
   124     000C                     PIR1            equ	12	;# 
   125     000D                     PIR2            equ	13	;# 
   126     000E                     TMR1            equ	14	;# 
   127     000E                     TMR1L           equ	14	;# 
   128     000F                     TMR1H           equ	15	;# 
   129     0010                     T1CON           equ	16	;# 
   130     0011                     TMR2            equ	17	;# 
   131     0012                     T2CON           equ	18	;# 
   132     0013                     SSPBUF          equ	19	;# 
   133     0014                     SSPCON          equ	20	;# 
   134     0015                     CCPR1           equ	21	;# 
   135     0015                     CCPR1L          equ	21	;# 
   136     0016                     CCPR1H          equ	22	;# 
   137     0017                     CCP1CON         equ	23	;# 
   138     0018                     RCSTA           equ	24	;# 
   139     0019                     TXREG           equ	25	;# 
   140     001A                     RCREG           equ	26	;# 
   141     001B                     CCPR2           equ	27	;# 
   142     001B                     CCPR2L          equ	27	;# 
   143     001C                     CCPR2H          equ	28	;# 
   144     001D                     CCP2CON         equ	29	;# 
   145     001E                     ADRESH          equ	30	;# 
   146     001F                     ADCON0          equ	31	;# 
   147     0081                     OPTION_REG      equ	129	;# 
   148     0085                     TRISA           equ	133	;# 
   149     0086                     TRISB           equ	134	;# 
   150     0087                     TRISC           equ	135	;# 
   151     0088                     TRISD           equ	136	;# 
   152     0089                     TRISE           equ	137	;# 
   153     008C                     PIE1            equ	140	;# 
   154     008D                     PIE2            equ	141	;# 
   155     008E                     PCON            equ	142	;# 
   156     0091                     SSPCON2         equ	145	;# 
   157     0092                     PR2             equ	146	;# 
   158     0093                     SSPADD          equ	147	;# 
   159     0094                     SSPSTAT         equ	148	;# 
   160     0098                     TXSTA           equ	152	;# 
   161     0099                     SPBRG           equ	153	;# 
   162     009C                     CMCON           equ	156	;# 
   163     009D                     CVRCON          equ	157	;# 
   164     009E                     ADRESL          equ	158	;# 
   165     009F                     ADCON1          equ	159	;# 
   166     010C                     EEDATA          equ	268	;# 
   167     010D                     EEADR           equ	269	;# 
   168     010E                     EEDATH          equ	270	;# 
   169     010F                     EEADRH          equ	271	;# 
   170     018C                     EECON1          equ	396	;# 
   171     018D                     EECON2          equ	397	;# 
   172     0000                     INDF            equ	0	;# 
   173     0001                     TMR0            equ	1	;# 
   174     0002                     PCL             equ	2	;# 
   175     0003                     STATUS          equ	3	;# 
   176     0004                     FSR             equ	4	;# 
   177     0005                     PORTA           equ	5	;# 
   178     0006                     PORTB           equ	6	;# 
   179     0007                     PORTC           equ	7	;# 
   180     0008                     PORTD           equ	8	;# 
   181     0009                     PORTE           equ	9	;# 
   182     000A                     PCLATH          equ	10	;# 
   183     000B                     INTCON          equ	11	;# 
   184     000C                     PIR1            equ	12	;# 
   185     000D                     PIR2            equ	13	;# 
   186     000E                     TMR1            equ	14	;# 
   187     000E                     TMR1L           equ	14	;# 
   188     000F                     TMR1H           equ	15	;# 
   189     0010                     T1CON           equ	16	;# 
   190     0011                     TMR2            equ	17	;# 
   191     0012                     T2CON           equ	18	;# 
   192     0013                     SSPBUF          equ	19	;# 
   193     0014                     SSPCON          equ	20	;# 
   194     0015                     CCPR1           equ	21	;# 
   195     0015                     CCPR1L          equ	21	;# 
   196     0016                     CCPR1H          equ	22	;# 
   197     0017                     CCP1CON         equ	23	;# 
   198     0018                     RCSTA           equ	24	;# 
   199     0019                     TXREG           equ	25	;# 
   200     001A                     RCREG           equ	26	;# 
   201     001B                     CCPR2           equ	27	;# 
   202     001B                     CCPR2L          equ	27	;# 
   203     001C                     CCPR2H          equ	28	;# 
   204     001D                     CCP2CON         equ	29	;# 
   205     001E                     ADRESH          equ	30	;# 
   206     001F                     ADCON0          equ	31	;# 
   207     0081                     OPTION_REG      equ	129	;# 
   208     0085                     TRISA           equ	133	;# 
   209     0086                     TRISB           equ	134	;# 
   210     0087                     TRISC           equ	135	;# 
   211     0088                     TRISD           equ	136	;# 
   212     0089                     TRISE           equ	137	;# 
   213     008C                     PIE1            equ	140	;# 
   214     008D                     PIE2            equ	141	;# 
   215     008E                     PCON            equ	142	;# 
   216     0091                     SSPCON2         equ	145	;# 
   217     0092                     PR2             equ	146	;# 
   218     0093                     SSPADD          equ	147	;# 
   219     0094                     SSPSTAT         equ	148	;# 
   220     0098                     TXSTA           equ	152	;# 
   221     0099                     SPBRG           equ	153	;# 
   222     009C                     CMCON           equ	156	;# 
   223     009D                     CVRCON          equ	157	;# 
   224     009E                     ADRESL          equ	158	;# 
   225     009F                     ADCON1          equ	159	;# 
   226     010C                     EEDATA          equ	268	;# 
   227     010D                     EEADR           equ	269	;# 
   228     010E                     EEDATH          equ	270	;# 
   229     010F                     EEADRH          equ	271	;# 
   230     018C                     EECON1          equ	396	;# 
   231     018D                     EECON2          equ	397	;# 
   232     0000                     INDF            equ	0	;# 
   233     0001                     TMR0            equ	1	;# 
   234     0002                     PCL             equ	2	;# 
   235     0003                     STATUS          equ	3	;# 
   236     0004                     FSR             equ	4	;# 
   237     0005                     PORTA           equ	5	;# 
   238     0006                     PORTB           equ	6	;# 
   239     0007                     PORTC           equ	7	;# 
   240     0008                     PORTD           equ	8	;# 
   241     0009                     PORTE           equ	9	;# 
   242     000A                     PCLATH          equ	10	;# 
   243     000B                     INTCON          equ	11	;# 
   244     000C                     PIR1            equ	12	;# 
   245     000D                     PIR2            equ	13	;# 
   246     000E                     TMR1            equ	14	;# 
   247     000E                     TMR1L           equ	14	;# 
   248     000F                     TMR1H           equ	15	;# 
   249     0010                     T1CON           equ	16	;# 
   250     0011                     TMR2            equ	17	;# 
   251     0012                     T2CON           equ	18	;# 
   252     0013                     SSPBUF          equ	19	;# 
   253     0014                     SSPCON          equ	20	;# 
   254     0015                     CCPR1           equ	21	;# 
   255     0015                     CCPR1L          equ	21	;# 
   256     0016                     CCPR1H          equ	22	;# 
   257     0017                     CCP1CON         equ	23	;# 
   258     0018                     RCSTA           equ	24	;# 
   259     0019                     TXREG           equ	25	;# 
   260     001A                     RCREG           equ	26	;# 
   261     001B                     CCPR2           equ	27	;# 
   262     001B                     CCPR2L          equ	27	;# 
   263     001C                     CCPR2H          equ	28	;# 
   264     001D                     CCP2CON         equ	29	;# 
   265     001E                     ADRESH          equ	30	;# 
   266     001F                     ADCON0          equ	31	;# 
   267     0081                     OPTION_REG      equ	129	;# 
   268     0085                     TRISA           equ	133	;# 
   269     0086                     TRISB           equ	134	;# 
   270     0087                     TRISC           equ	135	;# 
   271     0088                     TRISD           equ	136	;# 
   272     0089                     TRISE           equ	137	;# 
   273     008C                     PIE1            equ	140	;# 
   274     008D                     PIE2            equ	141	;# 
   275     008E                     PCON            equ	142	;# 
   276     0091                     SSPCON2         equ	145	;# 
   277     0092                     PR2             equ	146	;# 
   278     0093                     SSPADD          equ	147	;# 
   279     0094                     SSPSTAT         equ	148	;# 
   280     0098                     TXSTA           equ	152	;# 
   281     0099                     SPBRG           equ	153	;# 
   282     009C                     CMCON           equ	156	;# 
   283     009D                     CVRCON          equ	157	;# 
   284     009E                     ADRESL          equ	158	;# 
   285     009F                     ADCON1          equ	159	;# 
   286     010C                     EEDATA          equ	268	;# 
   287     010D                     EEADR           equ	269	;# 
   288     010E                     EEDATH          equ	270	;# 
   289     010F                     EEADRH          equ	271	;# 
   290     018C                     EECON1          equ	396	;# 
   291     018D                     EECON2          equ	397	;# 
   292     0000                     INDF            equ	0	;# 
   293     0001                     TMR0            equ	1	;# 
   294     0002                     PCL             equ	2	;# 
   295     0003                     STATUS          equ	3	;# 
   296     0004                     FSR             equ	4	;# 
   297     0005                     PORTA           equ	5	;# 
   298     0006                     PORTB           equ	6	;# 
   299     0007                     PORTC           equ	7	;# 
   300     0008                     PORTD           equ	8	;# 
   301     0009                     PORTE           equ	9	;# 
   302     000A                     PCLATH          equ	10	;# 
   303     000B                     INTCON          equ	11	;# 
   304     000C                     PIR1            equ	12	;# 
   305     000D                     PIR2            equ	13	;# 
   306     000E                     TMR1            equ	14	;# 
   307     000E                     TMR1L           equ	14	;# 
   308     000F                     TMR1H           equ	15	;# 
   309     0010                     T1CON           equ	16	;# 
   310     0011                     TMR2            equ	17	;# 
   311     0012                     T2CON           equ	18	;# 
   312     0013                     SSPBUF          equ	19	;# 
   313     0014                     SSPCON          equ	20	;# 
   314     0015                     CCPR1           equ	21	;# 
   315     0015                     CCPR1L          equ	21	;# 
   316     0016                     CCPR1H          equ	22	;# 
   317     0017                     CCP1CON         equ	23	;# 
   318     0018                     RCSTA           equ	24	;# 
   319     0019                     TXREG           equ	25	;# 
   320     001A                     RCREG           equ	26	;# 
   321     001B                     CCPR2           equ	27	;# 
   322     001B                     CCPR2L          equ	27	;# 
   323     001C                     CCPR2H          equ	28	;# 
   324     001D                     CCP2CON         equ	29	;# 
   325     001E                     ADRESH          equ	30	;# 
   326     001F                     ADCON0          equ	31	;# 
   327     0081                     OPTION_REG      equ	129	;# 
   328     0085                     TRISA           equ	133	;# 
   329     0086                     TRISB           equ	134	;# 
   330     0087                     TRISC           equ	135	;# 
   331     0088                     TRISD           equ	136	;# 
   332     0089                     TRISE           equ	137	;# 
   333     008C                     PIE1            equ	140	;# 
   334     008D                     PIE2            equ	141	;# 
   335     008E                     PCON            equ	142	;# 
   336     0091                     SSPCON2         equ	145	;# 
   337     0092                     PR2             equ	146	;# 
   338     0093                     SSPADD          equ	147	;# 
   339     0094                     SSPSTAT         equ	148	;# 
   340     0098                     TXSTA           equ	152	;# 
   341     0099                     SPBRG           equ	153	;# 
   342     009C                     CMCON           equ	156	;# 
   343     009D                     CVRCON          equ	157	;# 
   344     009E                     ADRESL          equ	158	;# 
   345     009F                     ADCON1          equ	159	;# 
   346     010C                     EEDATA          equ	268	;# 
   347     010D                     EEADR           equ	269	;# 
   348     010E                     EEDATH          equ	270	;# 
   349     010F                     EEADRH          equ	271	;# 
   350     018C                     EECON1          equ	396	;# 
   351     018D                     EECON2          equ	397	;# 
   352     0000                     INDF            equ	0	;# 
   353     0001                     TMR0            equ	1	;# 
   354     0002                     PCL             equ	2	;# 
   355     0003                     STATUS          equ	3	;# 
   356     0004                     FSR             equ	4	;# 
   357     0005                     PORTA           equ	5	;# 
   358     0006                     PORTB           equ	6	;# 
   359     0007                     PORTC           equ	7	;# 
   360     0008                     PORTD           equ	8	;# 
   361     0009                     PORTE           equ	9	;# 
   362     000A                     PCLATH          equ	10	;# 
   363     000B                     INTCON          equ	11	;# 
   364     000C                     PIR1            equ	12	;# 
   365     000D                     PIR2            equ	13	;# 
   366     000E                     TMR1            equ	14	;# 
   367     000E                     TMR1L           equ	14	;# 
   368     000F                     TMR1H           equ	15	;# 
   369     0010                     T1CON           equ	16	;# 
   370     0011                     TMR2            equ	17	;# 
   371     0012                     T2CON           equ	18	;# 
   372     0013                     SSPBUF          equ	19	;# 
   373     0014                     SSPCON          equ	20	;# 
   374     0015                     CCPR1           equ	21	;# 
   375     0015                     CCPR1L          equ	21	;# 
   376     0016                     CCPR1H          equ	22	;# 
   377     0017                     CCP1CON         equ	23	;# 
   378     0018                     RCSTA           equ	24	;# 
   379     0019                     TXREG           equ	25	;# 
   380     001A                     RCREG           equ	26	;# 
   381     001B                     CCPR2           equ	27	;# 
   382     001B                     CCPR2L          equ	27	;# 
   383     001C                     CCPR2H          equ	28	;# 
   384     001D                     CCP2CON         equ	29	;# 
   385     001E                     ADRESH          equ	30	;# 
   386     001F                     ADCON0          equ	31	;# 
   387     0081                     OPTION_REG      equ	129	;# 
   388     0085                     TRISA           equ	133	;# 
   389     0086                     TRISB           equ	134	;# 
   390     0087                     TRISC           equ	135	;# 
   391     0088                     TRISD           equ	136	;# 
   392     0089                     TRISE           equ	137	;# 
   393     008C                     PIE1            equ	140	;# 
   394     008D                     PIE2            equ	141	;# 
   395     008E                     PCON            equ	142	;# 
   396     0091                     SSPCON2         equ	145	;# 
   397     0092                     PR2             equ	146	;# 
   398     0093                     SSPADD          equ	147	;# 
   399     0094                     SSPSTAT         equ	148	;# 
   400     0098                     TXSTA           equ	152	;# 
   401     0099                     SPBRG           equ	153	;# 
   402     009C                     CMCON           equ	156	;# 
   403     009D                     CVRCON          equ	157	;# 
   404     009E                     ADRESL          equ	158	;# 
   405     009F                     ADCON1          equ	159	;# 
   406     010C                     EEDATA          equ	268	;# 
   407     010D                     EEADR           equ	269	;# 
   408     010E                     EEDATH          equ	270	;# 
   409     010F                     EEADRH          equ	271	;# 
   410     018C                     EECON1          equ	396	;# 
   411     018D                     EECON2          equ	397	;# 
   412     0000                     INDF            equ	0	;# 
   413     0001                     TMR0            equ	1	;# 
   414     0002                     PCL             equ	2	;# 
   415     0003                     STATUS          equ	3	;# 
   416     0004                     FSR             equ	4	;# 
   417     0005                     PORTA           equ	5	;# 
   418     0006                     PORTB           equ	6	;# 
   419     0007                     PORTC           equ	7	;# 
   420     0008                     PORTD           equ	8	;# 
   421     0009                     PORTE           equ	9	;# 
   422     000A                     PCLATH          equ	10	;# 
   423     000B                     INTCON          equ	11	;# 
   424     000C                     PIR1            equ	12	;# 
   425     000D                     PIR2            equ	13	;# 
   426     000E                     TMR1            equ	14	;# 
   427     000E                     TMR1L           equ	14	;# 
   428     000F                     TMR1H           equ	15	;# 
   429     0010                     T1CON           equ	16	;# 
   430     0011                     TMR2            equ	17	;# 
   431     0012                     T2CON           equ	18	;# 
   432     0013                     SSPBUF          equ	19	;# 
   433     0014                     SSPCON          equ	20	;# 
   434     0015                     CCPR1           equ	21	;# 
   435     0015                     CCPR1L          equ	21	;# 
   436     0016                     CCPR1H          equ	22	;# 
   437     0017                     CCP1CON         equ	23	;# 
   438     0018                     RCSTA           equ	24	;# 
   439     0019                     TXREG           equ	25	;# 
   440     001A                     RCREG           equ	26	;# 
   441     001B                     CCPR2           equ	27	;# 
   442     001B                     CCPR2L          equ	27	;# 
   443     001C                     CCPR2H          equ	28	;# 
   444     001D                     CCP2CON         equ	29	;# 
   445     001E                     ADRESH          equ	30	;# 
   446     001F                     ADCON0          equ	31	;# 
   447     0081                     OPTION_REG      equ	129	;# 
   448     0085                     TRISA           equ	133	;# 
   449     0086                     TRISB           equ	134	;# 
   450     0087                     TRISC           equ	135	;# 
   451     0088                     TRISD           equ	136	;# 
   452     0089                     TRISE           equ	137	;# 
   453     008C                     PIE1            equ	140	;# 
   454     008D                     PIE2            equ	141	;# 
   455     008E                     PCON            equ	142	;# 
   456     0091                     SSPCON2         equ	145	;# 
   457     0092                     PR2             equ	146	;# 
   458     0093                     SSPADD          equ	147	;# 
   459     0094                     SSPSTAT         equ	148	;# 
   460     0098                     TXSTA           equ	152	;# 
   461     0099                     SPBRG           equ	153	;# 
   462     009C                     CMCON           equ	156	;# 
   463     009D                     CVRCON          equ	157	;# 
   464     009E                     ADRESL          equ	158	;# 
   465     009F                     ADCON1          equ	159	;# 
   466     010C                     EEDATA          equ	268	;# 
   467     010D                     EEADR           equ	269	;# 
   468     010E                     EEDATH          equ	270	;# 
   469     010F                     EEADRH          equ	271	;# 
   470     018C                     EECON1          equ	396	;# 
   471     018D                     EECON2          equ	397	;# 
   472     0000                     INDF            equ	0	;# 
   473     0001                     TMR0            equ	1	;# 
   474     0002                     PCL             equ	2	;# 
   475     0003                     STATUS          equ	3	;# 
   476     0004                     FSR             equ	4	;# 
   477     0005                     PORTA           equ	5	;# 
   478     0006                     PORTB           equ	6	;# 
   479     0007                     PORTC           equ	7	;# 
   480     0008                     PORTD           equ	8	;# 
   481     0009                     PORTE           equ	9	;# 
   482     000A                     PCLATH          equ	10	;# 
   483     000B                     INTCON          equ	11	;# 
   484     000C                     PIR1            equ	12	;# 
   485     000D                     PIR2            equ	13	;# 
   486     000E                     TMR1            equ	14	;# 
   487     000E                     TMR1L           equ	14	;# 
   488     000F                     TMR1H           equ	15	;# 
   489     0010                     T1CON           equ	16	;# 
   490     0011                     TMR2            equ	17	;# 
   491     0012                     T2CON           equ	18	;# 
   492     0013                     SSPBUF          equ	19	;# 
   493     0014                     SSPCON          equ	20	;# 
   494     0015                     CCPR1           equ	21	;# 
   495     0015                     CCPR1L          equ	21	;# 
   496     0016                     CCPR1H          equ	22	;# 
   497     0017                     CCP1CON         equ	23	;# 
   498     0018                     RCSTA           equ	24	;# 
   499     0019                     TXREG           equ	25	;# 
   500     001A                     RCREG           equ	26	;# 
   501     001B                     CCPR2           equ	27	;# 
   502     001B                     CCPR2L          equ	27	;# 
   503     001C                     CCPR2H          equ	28	;# 
   504     001D                     CCP2CON         equ	29	;# 
   505     001E                     ADRESH          equ	30	;# 
   506     001F                     ADCON0          equ	31	;# 
   507     0081                     OPTION_REG      equ	129	;# 
   508     0085                     TRISA           equ	133	;# 
   509     0086                     TRISB           equ	134	;# 
   510     0087                     TRISC           equ	135	;# 
   511     0088                     TRISD           equ	136	;# 
   512     0089                     TRISE           equ	137	;# 
   513     008C                     PIE1            equ	140	;# 
   514     008D                     PIE2            equ	141	;# 
   515     008E                     PCON            equ	142	;# 
   516     0091                     SSPCON2         equ	145	;# 
   517     0092                     PR2             equ	146	;# 
   518     0093                     SSPADD          equ	147	;# 
   519     0094                     SSPSTAT         equ	148	;# 
   520     0098                     TXSTA           equ	152	;# 
   521     0099                     SPBRG           equ	153	;# 
   522     009C                     CMCON           equ	156	;# 
   523     009D                     CVRCON          equ	157	;# 
   524     009E                     ADRESL          equ	158	;# 
   525     009F                     ADCON1          equ	159	;# 
   526     010C                     EEDATA          equ	268	;# 
   527     010D                     EEADR           equ	269	;# 
   528     010E                     EEDATH          equ	270	;# 
   529     010F                     EEADRH          equ	271	;# 
   530     018C                     EECON1          equ	396	;# 
   531     018D                     EECON2          equ	397	;# 
   532     0000                     INDF            equ	0	;# 
   533     0001                     TMR0            equ	1	;# 
   534     0002                     PCL             equ	2	;# 
   535     0003                     STATUS          equ	3	;# 
   536     0004                     FSR             equ	4	;# 
   537     0005                     PORTA           equ	5	;# 
   538     0006                     PORTB           equ	6	;# 
   539     0007                     PORTC           equ	7	;# 
   540     0008                     PORTD           equ	8	;# 
   541     0009                     PORTE           equ	9	;# 
   542     000A                     PCLATH          equ	10	;# 
   543     000B                     INTCON          equ	11	;# 
   544     000C                     PIR1            equ	12	;# 
   545     000D                     PIR2            equ	13	;# 
   546     000E                     TMR1            equ	14	;# 
   547     000E                     TMR1L           equ	14	;# 
   548     000F                     TMR1H           equ	15	;# 
   549     0010                     T1CON           equ	16	;# 
   550     0011                     TMR2            equ	17	;# 
   551     0012                     T2CON           equ	18	;# 
   552     0013                     SSPBUF          equ	19	;# 
   553     0014                     SSPCON          equ	20	;# 
   554     0015                     CCPR1           equ	21	;# 
   555     0015                     CCPR1L          equ	21	;# 
   556     0016                     CCPR1H          equ	22	;# 
   557     0017                     CCP1CON         equ	23	;# 
   558     0018                     RCSTA           equ	24	;# 
   559     0019                     TXREG           equ	25	;# 
   560     001A                     RCREG           equ	26	;# 
   561     001B                     CCPR2           equ	27	;# 
   562     001B                     CCPR2L          equ	27	;# 
   563     001C                     CCPR2H          equ	28	;# 
   564     001D                     CCP2CON         equ	29	;# 
   565     001E                     ADRESH          equ	30	;# 
   566     001F                     ADCON0          equ	31	;# 
   567     0081                     OPTION_REG      equ	129	;# 
   568     0085                     TRISA           equ	133	;# 
   569     0086                     TRISB           equ	134	;# 
   570     0087                     TRISC           equ	135	;# 
   571     0088                     TRISD           equ	136	;# 
   572     0089                     TRISE           equ	137	;# 
   573     008C                     PIE1            equ	140	;# 
   574     008D                     PIE2            equ	141	;# 
   575     008E                     PCON            equ	142	;# 
   576     0091                     SSPCON2         equ	145	;# 
   577     0092                     PR2             equ	146	;# 
   578     0093                     SSPADD          equ	147	;# 
   579     0094                     SSPSTAT         equ	148	;# 
   580     0098                     TXSTA           equ	152	;# 
   581     0099                     SPBRG           equ	153	;# 
   582     009C                     CMCON           equ	156	;# 
   583     009D                     CVRCON          equ	157	;# 
   584     009E                     ADRESL          equ	158	;# 
   585     009F                     ADCON1          equ	159	;# 
   586     010C                     EEDATA          equ	268	;# 
   587     010D                     EEADR           equ	269	;# 
   588     010E                     EEDATH          equ	270	;# 
   589     010F                     EEADRH          equ	271	;# 
   590     018C                     EECON1          equ	396	;# 
   591     018D                     EECON2          equ	397	;# 
   592     0000                     INDF            equ	0	;# 
   593     0001                     TMR0            equ	1	;# 
   594     0002                     PCL             equ	2	;# 
   595     0003                     STATUS          equ	3	;# 
   596     0004                     FSR             equ	4	;# 
   597     0005                     PORTA           equ	5	;# 
   598     0006                     PORTB           equ	6	;# 
   599     0007                     PORTC           equ	7	;# 
   600     0008                     PORTD           equ	8	;# 
   601     0009                     PORTE           equ	9	;# 
   602     000A                     PCLATH          equ	10	;# 
   603     000B                     INTCON          equ	11	;# 
   604     000C                     PIR1            equ	12	;# 
   605     000D                     PIR2            equ	13	;# 
   606     000E                     TMR1            equ	14	;# 
   607     000E                     TMR1L           equ	14	;# 
   608     000F                     TMR1H           equ	15	;# 
   609     0010                     T1CON           equ	16	;# 
   610     0011                     TMR2            equ	17	;# 
   611     0012                     T2CON           equ	18	;# 
   612     0013                     SSPBUF          equ	19	;# 
   613     0014                     SSPCON          equ	20	;# 
   614     0015                     CCPR1           equ	21	;# 
   615     0015                     CCPR1L          equ	21	;# 
   616     0016                     CCPR1H          equ	22	;# 
   617     0017                     CCP1CON         equ	23	;# 
   618     0018                     RCSTA           equ	24	;# 
   619     0019                     TXREG           equ	25	;# 
   620     001A                     RCREG           equ	26	;# 
   621     001B                     CCPR2           equ	27	;# 
   622     001B                     CCPR2L          equ	27	;# 
   623     001C                     CCPR2H          equ	28	;# 
   624     001D                     CCP2CON         equ	29	;# 
   625     001E                     ADRESH          equ	30	;# 
   626     001F                     ADCON0          equ	31	;# 
   627     0081                     OPTION_REG      equ	129	;# 
   628     0085                     TRISA           equ	133	;# 
   629     0086                     TRISB           equ	134	;# 
   630     0087                     TRISC           equ	135	;# 
   631     0088                     TRISD           equ	136	;# 
   632     0089                     TRISE           equ	137	;# 
   633     008C                     PIE1            equ	140	;# 
   634     008D                     PIE2            equ	141	;# 
   635     008E                     PCON            equ	142	;# 
   636     0091                     SSPCON2         equ	145	;# 
   637     0092                     PR2             equ	146	;# 
   638     0093                     SSPADD          equ	147	;# 
   639     0094                     SSPSTAT         equ	148	;# 
   640     0098                     TXSTA           equ	152	;# 
   641     0099                     SPBRG           equ	153	;# 
   642     009C                     CMCON           equ	156	;# 
   643     009D                     CVRCON          equ	157	;# 
   644     009E                     ADRESL          equ	158	;# 
   645     009F                     ADCON1          equ	159	;# 
   646     010C                     EEDATA          equ	268	;# 
   647     010D                     EEADR           equ	269	;# 
   648     010E                     EEDATH          equ	270	;# 
   649     010F                     EEADRH          equ	271	;# 
   650     018C                     EECON1          equ	396	;# 
   651     018D                     EECON2          equ	397	;# 
   652     0000                     INDF            equ	0	;# 
   653     0001                     TMR0            equ	1	;# 
   654     0002                     PCL             equ	2	;# 
   655     0003                     STATUS          equ	3	;# 
   656     0004                     FSR             equ	4	;# 
   657     0005                     PORTA           equ	5	;# 
   658     0006                     PORTB           equ	6	;# 
   659     0007                     PORTC           equ	7	;# 
   660     0008                     PORTD           equ	8	;# 
   661     0009                     PORTE           equ	9	;# 
   662     000A                     PCLATH          equ	10	;# 
   663     000B                     INTCON          equ	11	;# 
   664     000C                     PIR1            equ	12	;# 
   665     000D                     PIR2            equ	13	;# 
   666     000E                     TMR1            equ	14	;# 
   667     000E                     TMR1L           equ	14	;# 
   668     000F                     TMR1H           equ	15	;# 
   669     0010                     T1CON           equ	16	;# 
   670     0011                     TMR2            equ	17	;# 
   671     0012                     T2CON           equ	18	;# 
   672     0013                     SSPBUF          equ	19	;# 
   673     0014                     SSPCON          equ	20	;# 
   674     0015                     CCPR1           equ	21	;# 
   675     0015                     CCPR1L          equ	21	;# 
   676     0016                     CCPR1H          equ	22	;# 
   677     0017                     CCP1CON         equ	23	;# 
   678     0018                     RCSTA           equ	24	;# 
   679     0019                     TXREG           equ	25	;# 
   680     001A                     RCREG           equ	26	;# 
   681     001B                     CCPR2           equ	27	;# 
   682     001B                     CCPR2L          equ	27	;# 
   683     001C                     CCPR2H          equ	28	;# 
   684     001D                     CCP2CON         equ	29	;# 
   685     001E                     ADRESH          equ	30	;# 
   686     001F                     ADCON0          equ	31	;# 
   687     0081                     OPTION_REG      equ	129	;# 
   688     0085                     TRISA           equ	133	;# 
   689     0086                     TRISB           equ	134	;# 
   690     0087                     TRISC           equ	135	;# 
   691     0088                     TRISD           equ	136	;# 
   692     0089                     TRISE           equ	137	;# 
   693     008C                     PIE1            equ	140	;# 
   694     008D                     PIE2            equ	141	;# 
   695     008E                     PCON            equ	142	;# 
   696     0091                     SSPCON2         equ	145	;# 
   697     0092                     PR2             equ	146	;# 
   698     0093                     SSPADD          equ	147	;# 
   699     0094                     SSPSTAT         equ	148	;# 
   700     0098                     TXSTA           equ	152	;# 
   701     0099                     SPBRG           equ	153	;# 
   702     009C                     CMCON           equ	156	;# 
   703     009D                     CVRCON          equ	157	;# 
   704     009E                     ADRESL          equ	158	;# 
   705     009F                     ADCON1          equ	159	;# 
   706     010C                     EEDATA          equ	268	;# 
   707     010D                     EEADR           equ	269	;# 
   708     010E                     EEDATH          equ	270	;# 
   709     010F                     EEADRH          equ	271	;# 
   710     018C                     EECON1          equ	396	;# 
   711     018D                     EECON2          equ	397	;# 
   712     0000                     INDF            equ	0	;# 
   713     0001                     TMR0            equ	1	;# 
   714     0002                     PCL             equ	2	;# 
   715     0003                     STATUS          equ	3	;# 
   716     0004                     FSR             equ	4	;# 
   717     0005                     PORTA           equ	5	;# 
   718     0006                     PORTB           equ	6	;# 
   719     0007                     PORTC           equ	7	;# 
   720     0008                     PORTD           equ	8	;# 
   721     0009                     PORTE           equ	9	;# 
   722     000A                     PCLATH          equ	10	;# 
   723     000B                     INTCON          equ	11	;# 
   724     000C                     PIR1            equ	12	;# 
   725     000D                     PIR2            equ	13	;# 
   726     000E                     TMR1            equ	14	;# 
   727     000E                     TMR1L           equ	14	;# 
   728     000F                     TMR1H           equ	15	;# 
   729     0010                     T1CON           equ	16	;# 
   730     0011                     TMR2            equ	17	;# 
   731     0012                     T2CON           equ	18	;# 
   732     0013                     SSPBUF          equ	19	;# 
   733     0014                     SSPCON          equ	20	;# 
   734     0015                     CCPR1           equ	21	;# 
   735     0015                     CCPR1L          equ	21	;# 
   736     0016                     CCPR1H          equ	22	;# 
   737     0017                     CCP1CON         equ	23	;# 
   738     0018                     RCSTA           equ	24	;# 
   739     0019                     TXREG           equ	25	;# 
   740     001A                     RCREG           equ	26	;# 
   741     001B                     CCPR2           equ	27	;# 
   742     001B                     CCPR2L          equ	27	;# 
   743     001C                     CCPR2H          equ	28	;# 
   744     001D                     CCP2CON         equ	29	;# 
   745     001E                     ADRESH          equ	30	;# 
   746     001F                     ADCON0          equ	31	;# 
   747     0081                     OPTION_REG      equ	129	;# 
   748     0085                     TRISA           equ	133	;# 
   749     0086                     TRISB           equ	134	;# 
   750     0087                     TRISC           equ	135	;# 
   751     0088                     TRISD           equ	136	;# 
   752     0089                     TRISE           equ	137	;# 
   753     008C                     PIE1            equ	140	;# 
   754     008D                     PIE2            equ	141	;# 
   755     008E                     PCON            equ	142	;# 
   756     0091                     SSPCON2         equ	145	;# 
   757     0092                     PR2             equ	146	;# 
   758     0093                     SSPADD          equ	147	;# 
   759     0094                     SSPSTAT         equ	148	;# 
   760     0098                     TXSTA           equ	152	;# 
   761     0099                     SPBRG           equ	153	;# 
   762     009C                     CMCON           equ	156	;# 
   763     009D                     CVRCON          equ	157	;# 
   764     009E                     ADRESL          equ	158	;# 
   765     009F                     ADCON1          equ	159	;# 
   766     010C                     EEDATA          equ	268	;# 
   767     010D                     EEADR           equ	269	;# 
   768     010E                     EEDATH          equ	270	;# 
   769     010F                     EEADRH          equ	271	;# 
   770     018C                     EECON1          equ	396	;# 
   771     018D                     EECON2          equ	397	;# 
   772     0000                     INDF            equ	0	;# 
   773     0001                     TMR0            equ	1	;# 
   774     0002                     PCL             equ	2	;# 
   775     0003                     STATUS          equ	3	;# 
   776     0004                     FSR             equ	4	;# 
   777     0005                     PORTA           equ	5	;# 
   778     0006                     PORTB           equ	6	;# 
   779     0007                     PORTC           equ	7	;# 
   780     0008                     PORTD           equ	8	;# 
   781     0009                     PORTE           equ	9	;# 
   782     000A                     PCLATH          equ	10	;# 
   783     000B                     INTCON          equ	11	;# 
   784     000C                     PIR1            equ	12	;# 
   785     000D                     PIR2            equ	13	;# 
   786     000E                     TMR1            equ	14	;# 
   787     000E                     TMR1L           equ	14	;# 
   788     000F                     TMR1H           equ	15	;# 
   789     0010                     T1CON           equ	16	;# 
   790     0011                     TMR2            equ	17	;# 
   791     0012                     T2CON           equ	18	;# 
   792     0013                     SSPBUF          equ	19	;# 
   793     0014                     SSPCON          equ	20	;# 
   794     0015                     CCPR1           equ	21	;# 
   795     0015                     CCPR1L          equ	21	;# 
   796     0016                     CCPR1H          equ	22	;# 
   797     0017                     CCP1CON         equ	23	;# 
   798     0018                     RCSTA           equ	24	;# 
   799     0019                     TXREG           equ	25	;# 
   800     001A                     RCREG           equ	26	;# 
   801     001B                     CCPR2           equ	27	;# 
   802     001B                     CCPR2L          equ	27	;# 
   803     001C                     CCPR2H          equ	28	;# 
   804     001D                     CCP2CON         equ	29	;# 
   805     001E                     ADRESH          equ	30	;# 
   806     001F                     ADCON0          equ	31	;# 
   807     0081                     OPTION_REG      equ	129	;# 
   808     0085                     TRISA           equ	133	;# 
   809     0086                     TRISB           equ	134	;# 
   810     0087                     TRISC           equ	135	;# 
   811     0088                     TRISD           equ	136	;# 
   812     0089                     TRISE           equ	137	;# 
   813     008C                     PIE1            equ	140	;# 
   814     008D                     PIE2            equ	141	;# 
   815     008E                     PCON            equ	142	;# 
   816     0091                     SSPCON2         equ	145	;# 
   817     0092                     PR2             equ	146	;# 
   818     0093                     SSPADD          equ	147	;# 
   819     0094                     SSPSTAT         equ	148	;# 
   820     0098                     TXSTA           equ	152	;# 
   821     0099                     SPBRG           equ	153	;# 
   822     009C                     CMCON           equ	156	;# 
   823     009D                     CVRCON          equ	157	;# 
   824     009E                     ADRESL          equ	158	;# 
   825     009F                     ADCON1          equ	159	;# 
   826     010C                     EEDATA          equ	268	;# 
   827     010D                     EEADR           equ	269	;# 
   828     010E                     EEDATH          equ	270	;# 
   829     010F                     EEADRH          equ	271	;# 
   830     018C                     EECON1          equ	396	;# 
   831     018D                     EECON2          equ	397	;# 
   832     0000                     INDF            equ	0	;# 
   833     0001                     TMR0            equ	1	;# 
   834     0002                     PCL             equ	2	;# 
   835     0003                     STATUS          equ	3	;# 
   836     0004                     FSR             equ	4	;# 
   837     0005                     PORTA           equ	5	;# 
   838     0006                     PORTB           equ	6	;# 
   839     0007                     PORTC           equ	7	;# 
   840     0008                     PORTD           equ	8	;# 
   841     0009                     PORTE           equ	9	;# 
   842     000A                     PCLATH          equ	10	;# 
   843     000B                     INTCON          equ	11	;# 
   844     000C                     PIR1            equ	12	;# 
   845     000D                     PIR2            equ	13	;# 
   846     000E                     TMR1            equ	14	;# 
   847     000E                     TMR1L           equ	14	;# 
   848     000F                     TMR1H           equ	15	;# 
   849     0010                     T1CON           equ	16	;# 
   850     0011                     TMR2            equ	17	;# 
   851     0012                     T2CON           equ	18	;# 
   852     0013                     SSPBUF          equ	19	;# 
   853     0014                     SSPCON          equ	20	;# 
   854     0015                     CCPR1           equ	21	;# 
   855     0015                     CCPR1L          equ	21	;# 
   856     0016                     CCPR1H          equ	22	;# 
   857     0017                     CCP1CON         equ	23	;# 
   858     0018                     RCSTA           equ	24	;# 
   859     0019                     TXREG           equ	25	;# 
   860     001A                     RCREG           equ	26	;# 
   861     001B                     CCPR2           equ	27	;# 
   862     001B                     CCPR2L          equ	27	;# 
   863     001C                     CCPR2H          equ	28	;# 
   864     001D                     CCP2CON         equ	29	;# 
   865     001E                     ADRESH          equ	30	;# 
   866     001F                     ADCON0          equ	31	;# 
   867     0081                     OPTION_REG      equ	129	;# 
   868     0085                     TRISA           equ	133	;# 
   869     0086                     TRISB           equ	134	;# 
   870     0087                     TRISC           equ	135	;# 
   871     0088                     TRISD           equ	136	;# 
   872     0089                     TRISE           equ	137	;# 
   873     008C                     PIE1            equ	140	;# 
   874     008D                     PIE2            equ	141	;# 
   875     008E                     PCON            equ	142	;# 
   876     0091                     SSPCON2         equ	145	;# 
   877     0092                     PR2             equ	146	;# 
   878     0093                     SSPADD          equ	147	;# 
   879     0094                     SSPSTAT         equ	148	;# 
   880     0098                     TXSTA           equ	152	;# 
   881     0099                     SPBRG           equ	153	;# 
   882     009C                     CMCON           equ	156	;# 
   883     009D                     CVRCON          equ	157	;# 
   884     009E                     ADRESL          equ	158	;# 
   885     009F                     ADCON1          equ	159	;# 
   886     010C                     EEDATA          equ	268	;# 
   887     010D                     EEADR           equ	269	;# 
   888     010E                     EEDATH          equ	270	;# 
   889     010F                     EEADRH          equ	271	;# 
   890     018C                     EECON1          equ	396	;# 
   891     018D                     EECON2          equ	397	;# 
   892     0000                     INDF            equ	0	;# 
   893     0001                     TMR0            equ	1	;# 
   894     0002                     PCL             equ	2	;# 
   895     0003                     STATUS          equ	3	;# 
   896     0004                     FSR             equ	4	;# 
   897     0005                     PORTA           equ	5	;# 
   898     0006                     PORTB           equ	6	;# 
   899     0007                     PORTC           equ	7	;# 
   900     0008                     PORTD           equ	8	;# 
   901     0009                     PORTE           equ	9	;# 
   902     000A                     PCLATH          equ	10	;# 
   903     000B                     INTCON          equ	11	;# 
   904     000C                     PIR1            equ	12	;# 
   905     000D                     PIR2            equ	13	;# 
   906     000E                     TMR1            equ	14	;# 
   907     000E                     TMR1L           equ	14	;# 
   908     000F                     TMR1H           equ	15	;# 
   909     0010                     T1CON           equ	16	;# 
   910     0011                     TMR2            equ	17	;# 
   911     0012                     T2CON           equ	18	;# 
   912     0013                     SSPBUF          equ	19	;# 
   913     0014                     SSPCON          equ	20	;# 
   914     0015                     CCPR1           equ	21	;# 
   915     0015                     CCPR1L          equ	21	;# 
   916     0016                     CCPR1H          equ	22	;# 
   917     0017                     CCP1CON         equ	23	;# 
   918     0018                     RCSTA           equ	24	;# 
   919     0019                     TXREG           equ	25	;# 
   920     001A                     RCREG           equ	26	;# 
   921     001B                     CCPR2           equ	27	;# 
   922     001B                     CCPR2L          equ	27	;# 
   923     001C                     CCPR2H          equ	28	;# 
   924     001D                     CCP2CON         equ	29	;# 
   925     001E                     ADRESH          equ	30	;# 
   926     001F                     ADCON0          equ	31	;# 
   927     0081                     OPTION_REG      equ	129	;# 
   928     0085                     TRISA           equ	133	;# 
   929     0086                     TRISB           equ	134	;# 
   930     0087                     TRISC           equ	135	;# 
   931     0088                     TRISD           equ	136	;# 
   932     0089                     TRISE           equ	137	;# 
   933     008C                     PIE1            equ	140	;# 
   934     008D                     PIE2            equ	141	;# 
   935     008E                     PCON            equ	142	;# 
   936     0091                     SSPCON2         equ	145	;# 
   937     0092                     PR2             equ	146	;# 
   938     0093                     SSPADD          equ	147	;# 
   939     0094                     SSPSTAT         equ	148	;# 
   940     0098                     TXSTA           equ	152	;# 
   941     0099                     SPBRG           equ	153	;# 
   942     009C                     CMCON           equ	156	;# 
   943     009D                     CVRCON          equ	157	;# 
   944     009E                     ADRESL          equ	158	;# 
   945     009F                     ADCON1          equ	159	;# 
   946     010C                     EEDATA          equ	268	;# 
   947     010D                     EEADR           equ	269	;# 
   948     010E                     EEDATH          equ	270	;# 
   949     010F                     EEADRH          equ	271	;# 
   950     018C                     EECON1          equ	396	;# 
   951     018D                     EECON2          equ	397	;# 
   952     0000                     INDF            equ	0	;# 
   953     0001                     TMR0            equ	1	;# 
   954     0002                     PCL             equ	2	;# 
   955     0003                     STATUS          equ	3	;# 
   956     0004                     FSR             equ	4	;# 
   957     0005                     PORTA           equ	5	;# 
   958     0006                     PORTB           equ	6	;# 
   959     0007                     PORTC           equ	7	;# 
   960     0008                     PORTD           equ	8	;# 
   961     0009                     PORTE           equ	9	;# 
   962     000A                     PCLATH          equ	10	;# 
   963     000B                     INTCON          equ	11	;# 
   964     000C                     PIR1            equ	12	;# 
   965     000D                     PIR2            equ	13	;# 
   966     000E                     TMR1            equ	14	;# 
   967     000E                     TMR1L           equ	14	;# 
   968     000F                     TMR1H           equ	15	;# 
   969     0010                     T1CON           equ	16	;# 
   970     0011                     TMR2            equ	17	;# 
   971     0012                     T2CON           equ	18	;# 
   972     0013                     SSPBUF          equ	19	;# 
   973     0014                     SSPCON          equ	20	;# 
   974     0015                     CCPR1           equ	21	;# 
   975     0015                     CCPR1L          equ	21	;# 
   976     0016                     CCPR1H          equ	22	;# 
   977     0017                     CCP1CON         equ	23	;# 
   978     0018                     RCSTA           equ	24	;# 
   979     0019                     TXREG           equ	25	;# 
   980     001A                     RCREG           equ	26	;# 
   981     001B                     CCPR2           equ	27	;# 
   982     001B                     CCPR2L          equ	27	;# 
   983     001C                     CCPR2H          equ	28	;# 
   984     001D                     CCP2CON         equ	29	;# 
   985     001E                     ADRESH          equ	30	;# 
   986     001F                     ADCON0          equ	31	;# 
   987     0081                     OPTION_REG      equ	129	;# 
   988     0085                     TRISA           equ	133	;# 
   989     0086                     TRISB           equ	134	;# 
   990     0087                     TRISC           equ	135	;# 
   991     0088                     TRISD           equ	136	;# 
   992     0089                     TRISE           equ	137	;# 
   993     008C                     PIE1            equ	140	;# 
   994     008D                     PIE2            equ	141	;# 
   995     008E                     PCON            equ	142	;# 
   996     0091                     SSPCON2         equ	145	;# 
   997     0092                     PR2             equ	146	;# 
   998     0093                     SSPADD          equ	147	;# 
   999     0094                     SSPSTAT         equ	148	;# 
  1000     0098                     TXSTA           equ	152	;# 
  1001     0099                     SPBRG           equ	153	;# 
  1002     009C                     CMCON           equ	156	;# 
  1003     009D                     CVRCON          equ	157	;# 
  1004     009E                     ADRESL          equ	158	;# 
  1005     009F                     ADCON1          equ	159	;# 
  1006     010C                     EEDATA          equ	268	;# 
  1007     010D                     EEADR           equ	269	;# 
  1008     010E                     EEDATH          equ	270	;# 
  1009     010F                     EEADRH          equ	271	;# 
  1010     018C                     EECON1          equ	396	;# 
  1011     018D                     EECON2          equ	397	;# 
  1012                           
  1013                           	psect	idataBANK0
  1014     108C                     __pidataBANK0:
  1015                           
  1016                           ;initializer for read_digital_keypad@once
  1017     108C  3401               	retlw	1
  1018                           
  1019                           ;initializer for _attempts_left
  1020     108D  3403               	retlw	3
  1021                           
  1022                           ;initializer for _attempts
  1023     108E  3403               	retlw	3
  1024                           
  1025                           	psect	idataBANK1
  1026     13A3                     __pidataBANK1:
  1027                           
  1028                           ;initializer for _event
  1029     13A3  34BD               	retlw	low (STR_7| (0+32768))
  1030     13A4  3489               	retlw	high (STR_7| (0+32768))
  1031     13A5  34CC               	retlw	low (STR_1| (0+32768))
  1032     13A6  3489               	retlw	high (STR_1| (0+32768))
  1033     13A7  34C0               	retlw	low (STR_3| (0+32768))
  1034     13A8  3489               	retlw	high (STR_3| (0+32768))
  1035     13A9  34C3               	retlw	low (STR_4| (0+32768))
  1036     13AA  3489               	retlw	high (STR_4| (0+32768))
  1037     13AB  34C6               	retlw	low (STR_5| (0+32768))
  1038     13AC  3489               	retlw	high (STR_5| (0+32768))
  1039     13AD  34C9               	retlw	low (STR_6| (0+32768))
  1040     13AE  3489               	retlw	high (STR_6| (0+32768))
  1041     13AF  34CF               	retlw	low (STR_2| (0+32768))
  1042     13B0  3489               	retlw	high (STR_2| (0+32768))
  1043     13B1  34BA               	retlw	low (STR_14| (0+32768))
  1044     13B2  3489               	retlw	high (STR_14| (0+32768))
  1045                           
  1046                           ;initializer for _menu
  1047     13B3  3499               	retlw	low (STR_24| (0+32768))
  1048     13B4  3489               	retlw	high (STR_24| (0+32768))
  1049     13B5  3473               	retlw	low (STR_25| (0+32768))
  1050     13B6  3489               	retlw	high (STR_25| (0+32768))
  1051     13B7  344E               	retlw	low (STR_26| (0+32768))
  1052     13B8  3489               	retlw	high (STR_26| (0+32768))
  1053     13B9  347D               	retlw	low (STR_27| (0+32768))
  1054     13BA  3489               	retlw	high (STR_27| (0+32768))
  1055     13BB  34A1               	retlw	low (STR_28| (0+32768))
  1056     13BC  3488               	retlw	high (STR_28| (0+32768))
  1057     13BD  34B1               	retlw	low (STR_29| (0+32768))
  1058     13BE  3489               	retlw	high (STR_29| (0+32768))
  1059                           
  1060                           ;initializer for _gear
  1061     13BF  34CC               	retlw	low (STR_1| (0+32768))
  1062     13C0  3489               	retlw	high (STR_1| (0+32768))
  1063     13C1  34CF               	retlw	low (STR_2| (0+32768))
  1064     13C2  3489               	retlw	high (STR_2| (0+32768))
  1065     13C3  34C0               	retlw	low (STR_3| (0+32768))
  1066     13C4  3489               	retlw	high (STR_3| (0+32768))
  1067     13C5  34C3               	retlw	low (STR_4| (0+32768))
  1068     13C6  3489               	retlw	high (STR_4| (0+32768))
  1069     13C7  34C6               	retlw	low (STR_5| (0+32768))
  1070     13C8  3489               	retlw	high (STR_5| (0+32768))
  1071     13C9  34C9               	retlw	low (STR_6| (0+32768))
  1072     13CA  3489               	retlw	high (STR_6| (0+32768))
  1073                           
  1074                           ;initializer for change_password@F1070
  1075     13CB  345F               	retlw	95
  1076     13CC  345F               	retlw	95
  1077     13CD  345F               	retlw	95
  1078     13CE  345F               	retlw	95
  1079     13CF  3400               	retlw	0
  1080                           
  1081                           ;initializer for change_password@F1068
  1082     13D0  345F               	retlw	95
  1083     13D1  345F               	retlw	95
  1084     13D2  345F               	retlw	95
  1085     13D3  345F               	retlw	95
  1086     13D4  3400               	retlw	0
  1087                           
  1088                           ;initializer for _pass
  1089     13D5  3431               	retlw	49
  1090     13D6  3431               	retlw	49
  1091     13D7  3430               	retlw	48
  1092     13D8  3430               	retlw	48
  1093     13D9  3400               	retlw	0
  1094     0019                     _TXREG          set	25
  1095     0006                     _PORTB          set	6
  1096     0008                     _PORTD          set	8
  1097     001E                     _ADRESH         set	30
  1098     001F                     _ADCON0         set	31
  1099     0013                     _SSPBUF         set	19
  1100     0064                     _TXIF           set	100
  1101     00C7                     _SPEN           set	199
  1102     0049                     _RE1            set	73
  1103     004A                     _RE2            set	74
  1104     00FA                     _nDONE          set	250
  1105     00FA                     _GO             set	250
  1106     00F8                     _ADON           set	248
  1107     00A5                     _SSPEN          set	165
  1108     00A3                     _SSPM3          set	163
  1109     0099                     _SPBRG          set	153
  1110     0086                     _TRISB          set	134
  1111     0088                     _TRISD          set	136
  1112     009E                     _ADRESL         set	158
  1113     0091                     _SSPCON2        set	145
  1114     0093                     _SSPADD         set	147
  1115     04C5                     _TXEN           set	1221
  1116     04C6                     _TX9            set	1222
  1117     04C2                     _BRGH           set	1218
  1118     04C4                     _SYNC           set	1220
  1119     043F                     _TRISC7         set	1087
  1120     043E                     _TRISC6         set	1086
  1121     0449                     _TRISE1         set	1097
  1122     044A                     _TRISE2         set	1098
  1123     04FF                     _ADFM           set	1279
  1124     048E                     _ACKSTAT        set	1166
  1125     048C                     _ACKEN          set	1164
  1126     048D                     _ACKDT          set	1165
  1127     048B                     _RCEN           set	1163
  1128     048A                     _PEN            set	1162
  1129     0488                     _SEN            set	1160
  1130     04A2                     _R_nW           set	1186
  1131                           
  1132                           	psect	strings
  1133     1000                     __pstrings:
  1134     1000                     stringtab:
  1135     1000                     __stringtab:
  1136                           
  1137                           ;	String table - string pointers are 2 bytes each
  1138     1000  1BFF               	btfsc	btemp+1,7
  1139     1001  280A               	ljmp	stringcode
  1140     1002  1383               	bcf	3,7
  1141     1003  187F               	btfsc	btemp+1,0
  1142     1004  1783               	bsf	3,7
  1143     1005  0800               	movf	0,w
  1144     1006  0A84               	incf	4,f
  1145     1007  1903               	skipnz
  1146     1008  0AFF               	incf	btemp+1,f
  1147     1009  0008               	return
  1148     100A                     stringcode:
  1149     100A  087F               	movf	btemp+1,w
  1150     100B  397F               	andlw	127
  1151     100C  008A               	movwf	10
  1152     100D  0804               	movf	4,w
  1153     100E  0A84               	incf	4,f
  1154     100F  1903               	skipnz
  1155     1010  0AFF               	incf	btemp+1,f
  1156     1011  0082               	movwf	2
  1157     1012                     __stringbase:
  1158     1012                     __end_of__stringtab:
  1159                           
  1160                           	psect	stringtext
  1161     0800                     __pstringtext:
  1162     0800                     STR_41:
  1163     0800  342D               	retlw	45	;'-'
  1164     0801  342D               	retlw	45	;'-'
  1165     0802  342D               	retlw	45	;'-'
  1166     0803  342D               	retlw	45	;'-'
  1167     0804  342D               	retlw	45	;'-'
  1168     0805  342D               	retlw	45	;'-'
  1169     0806  342D               	retlw	45	;'-'
  1170     0807  344E               	retlw	78	;'N'
  1171     0808  344F               	retlw	79	;'O'
  1172     0809  3420               	retlw	32	;' '
  1173     080A  3444               	retlw	68	;'D'
  1174     080B  3441               	retlw	65	;'A'
  1175     080C  3454               	retlw	84	;'T'
  1176     080D  3441               	retlw	65	;'A'
  1177     080E  3420               	retlw	32	;' '
  1178     080F  344C               	retlw	76	;'L'
  1179     0810  344F               	retlw	79	;'O'
  1180     0811  3447               	retlw	71	;'G'
  1181     0812  3453               	retlw	83	;'S'
  1182     0813  3420               	retlw	32	;' '
  1183     0814  3446               	retlw	70	;'F'
  1184     0815  344F               	retlw	79	;'O'
  1185     0816  3455               	retlw	85	;'U'
  1186     0817  344E               	retlw	78	;'N'
  1187     0818  3444               	retlw	68	;'D'
  1188     0819  342D               	retlw	45	;'-'
  1189     081A  342D               	retlw	45	;'-'
  1190     081B  342D               	retlw	45	;'-'
  1191     081C  342D               	retlw	45	;'-'
  1192     081D  342D               	retlw	45	;'-'
  1193     081E  342D               	retlw	45	;'-'
  1194     081F  342D               	retlw	45	;'-'
  1195     0820  340D               	retlw	13
  1196     0821  340A               	retlw	10
  1197     0822  3400               	retlw	0
  1198     0823                     STR_45:
  1199     0823  342D               	retlw	45	;'-'
  1200     0824  342D               	retlw	45	;'-'
  1201     0825  342D               	retlw	45	;'-'
  1202     0826  342D               	retlw	45	;'-'
  1203     0827  342D               	retlw	45	;'-'
  1204     0828  342D               	retlw	45	;'-'
  1205     0829  342D               	retlw	45	;'-'
  1206     082A  342D               	retlw	45	;'-'
  1207     082B  342D               	retlw	45	;'-'
  1208     082C  342D               	retlw	45	;'-'
  1209     082D  342D               	retlw	45	;'-'
  1210     082E  342D               	retlw	45	;'-'
  1211     082F  342D               	retlw	45	;'-'
  1212     0830  342D               	retlw	45	;'-'
  1213     0831  342D               	retlw	45	;'-'
  1214     0832  342D               	retlw	45	;'-'
  1215     0833  342D               	retlw	45	;'-'
  1216     0834  342D               	retlw	45	;'-'
  1217     0835  342D               	retlw	45	;'-'
  1218     0836  342D               	retlw	45	;'-'
  1219     0837  342D               	retlw	45	;'-'
  1220     0838  342D               	retlw	45	;'-'
  1221     0839  342D               	retlw	45	;'-'
  1222     083A  342D               	retlw	45	;'-'
  1223     083B  342D               	retlw	45	;'-'
  1224     083C  342D               	retlw	45	;'-'
  1225     083D  342D               	retlw	45	;'-'
  1226     083E  342D               	retlw	45	;'-'
  1227     083F  340D               	retlw	13
  1228     0840  340A               	retlw	10
  1229     0841  3400               	retlw	0
  1230     0842                     STR_42:
  1231     0842  342D               	retlw	45	;'-'
  1232     0843  342D               	retlw	45	;'-'
  1233     0844  342D               	retlw	45	;'-'
  1234     0845  342D               	retlw	45	;'-'
  1235     0846  342D               	retlw	45	;'-'
  1236     0847  342D               	retlw	45	;'-'
  1237     0848  342D               	retlw	45	;'-'
  1238     0849  342D               	retlw	45	;'-'
  1239     084A  342D               	retlw	45	;'-'
  1240     084B  342D               	retlw	45	;'-'
  1241     084C  342D               	retlw	45	;'-'
  1242     084D  3444               	retlw	68	;'D'
  1243     084E  3441               	retlw	65	;'A'
  1244     084F  3454               	retlw	84	;'T'
  1245     0850  3441               	retlw	65	;'A'
  1246     0851  3420               	retlw	32	;' '
  1247     0852  344C               	retlw	76	;'L'
  1248     0853  344F               	retlw	79	;'O'
  1249     0854  3447               	retlw	71	;'G'
  1250     0855  342D               	retlw	45	;'-'
  1251     0856  342D               	retlw	45	;'-'
  1252     0857  342D               	retlw	45	;'-'
  1253     0858  342D               	retlw	45	;'-'
  1254     0859  342D               	retlw	45	;'-'
  1255     085A  342D               	retlw	45	;'-'
  1256     085B  342D               	retlw	45	;'-'
  1257     085C  342D               	retlw	45	;'-'
  1258     085D  342D               	retlw	45	;'-'
  1259     085E  340D               	retlw	13
  1260     085F  340A               	retlw	10
  1261     0860  3400               	retlw	0
  1262     0861                     STR_44:
  1263     0861  344E               	retlw	78	;'N'
  1264     0862  344F               	retlw	79	;'O'
  1265     0863  342E               	retlw	46	;'.'
  1266     0864  3420               	retlw	32	;' '
  1267     0865  3420               	retlw	32	;' '
  1268     0866  3420               	retlw	32	;' '
  1269     0867  3454               	retlw	84	;'T'
  1270     0868  3449               	retlw	73	;'I'
  1271     0869  344D               	retlw	77	;'M'
  1272     086A  3445               	retlw	69	;'E'
  1273     086B  3420               	retlw	32	;' '
  1274     086C  3420               	retlw	32	;' '
  1275     086D  3420               	retlw	32	;' '
  1276     086E  3420               	retlw	32	;' '
  1277     086F  3420               	retlw	32	;' '
  1278     0870  3445               	retlw	69	;'E'
  1279     0871  3456               	retlw	86	;'V'
  1280     0872  3445               	retlw	69	;'E'
  1281     0873  344E               	retlw	78	;'N'
  1282     0874  3454               	retlw	84	;'T'
  1283     0875  3420               	retlw	32	;' '
  1284     0876  3420               	retlw	32	;' '
  1285     0877  3453               	retlw	83	;'S'
  1286     0878  3450               	retlw	80	;'P'
  1287     0879  3445               	retlw	69	;'E'
  1288     087A  3445               	retlw	69	;'E'
  1289     087B  3444               	retlw	68	;'D'
  1290     087C  340D               	retlw	13
  1291     087D  340A               	retlw	10
  1292     087E  3400               	retlw	0
  1293     087F                     STR_50:
  1294     087F  3420               	retlw	32	;' '
  1295     0880  344C               	retlw	76	;'L'
  1296     0881  346F               	retlw	111	;'o'
  1297     0882  3467               	retlw	103	;'g'
  1298     0883  3473               	retlw	115	;'s'
  1299     0884  3420               	retlw	32	;' '
  1300     0885  3444               	retlw	68	;'D'
  1301     0886  346F               	retlw	111	;'o'
  1302     0887  3477               	retlw	119	;'w'
  1303     0888  346E               	retlw	110	;'n'
  1304     0889  346C               	retlw	108	;'l'
  1305     088A  346F               	retlw	111	;'o'
  1306     088B  3461               	retlw	97	;'a'
  1307     088C  3464               	retlw	100	;'d'
  1308     088D  3465               	retlw	101	;'e'
  1309     088E  3464               	retlw	100	;'d'
  1310     088F  3400               	retlw	0
  1311     0890                     STR_15:
  1312     0890  3420               	retlw	32	;' '
  1313     0891  3454               	retlw	84	;'T'
  1314     0892  3449               	retlw	73	;'I'
  1315     0893  344D               	retlw	77	;'M'
  1316     0894  3445               	retlw	69	;'E'
  1317     0895  3420               	retlw	32	;' '
  1318     0896  3420               	retlw	32	;' '
  1319     0897  3420               	retlw	32	;' '
  1320     0898  3420               	retlw	32	;' '
  1321     0899  3420               	retlw	32	;' '
  1322     089A  3445               	retlw	69	;'E'
  1323     089B  3456               	retlw	86	;'V'
  1324     089C  3420               	retlw	32	;' '
  1325     089D  3420               	retlw	32	;' '
  1326     089E  3453               	retlw	83	;'S'
  1327     089F  3450               	retlw	80	;'P'
  1328     08A0  3400               	retlw	0
  1329     08A1                     STR_28:
  1330     08A1  3443               	retlw	67	;'C'
  1331     08A2  3468               	retlw	104	;'h'
  1332     08A3  3461               	retlw	97	;'a'
  1333     08A4  346E               	retlw	110	;'n'
  1334     08A5  3467               	retlw	103	;'g'
  1335     08A6  3465               	retlw	101	;'e'
  1336     08A7  3420               	retlw	32	;' '
  1337     08A8  3450               	retlw	80	;'P'
  1338     08A9  3461               	retlw	97	;'a'
  1339     08AA  3473               	retlw	115	;'s'
  1340     08AB  3473               	retlw	115	;'s'
  1341     08AC  3477               	retlw	119	;'w'
  1342     08AD  346F               	retlw	111	;'o'
  1343     08AE  3472               	retlw	114	;'r'
  1344     08AF  3464               	retlw	100	;'d'
  1345     08B0  3400               	retlw	0
  1346     08B1                     STR_17:
  1347     08B1  3420               	retlw	32	;' '
  1348     08B2  3420               	retlw	32	;' '
  1349     08B3  3457               	retlw	87	;'W'
  1350     08B4  3461               	retlw	97	;'a'
  1351     08B5  3469               	retlw	105	;'i'
  1352     08B6  3474               	retlw	116	;'t'
  1353     08B7  3420               	retlw	32	;' '
  1354     08B8  3433               	retlw	51	;'3'
  1355     08B9  3430               	retlw	48	;'0'
  1356     08BA  3420               	retlw	32	;' '
  1357     08BB  3453               	retlw	83	;'S'
  1358     08BC  3465               	retlw	101	;'e'
  1359     08BD  3463               	retlw	99	;'c'
  1360     08BE  3427               	retlw	39	;'''
  1361     08BF  3473               	retlw	115	;'s'
  1362     08C0  3400               	retlw	0
  1363     08C1                     STR_22:
  1364     08C1  3441               	retlw	65	;'A'
  1365     08C2  3474               	retlw	116	;'t'
  1366     08C3  3474               	retlw	116	;'t'
  1367     08C4  3465               	retlw	101	;'e'
  1368     08C5  346D               	retlw	109	;'m'
  1369     08C6  3470               	retlw	112	;'p'
  1370     08C7  3474               	retlw	116	;'t'
  1371     08C8  3473               	retlw	115	;'s'
  1372     08C9  3420               	retlw	32	;' '
  1373     08CA  346C               	retlw	108	;'l'
  1374     08CB  3465               	retlw	101	;'e'
  1375     08CC  3466               	retlw	102	;'f'
  1376     08CD  3474               	retlw	116	;'t'
  1377     08CE  343A               	retlw	58	;':'
  1378     08CF  3400               	retlw	0
  1379     08D0                     STR_16:
  1380     08D0  3420               	retlw	32	;' '
  1381     08D1  3420               	retlw	32	;' '
  1382     08D2  3455               	retlw	85	;'U'
  1383     08D3  3473               	retlw	115	;'s'
  1384     08D4  3465               	retlw	101	;'e'
  1385     08D5  3472               	retlw	114	;'r'
  1386     08D6  3420               	retlw	32	;' '
  1387     08D7  3442               	retlw	66	;'B'
  1388     08D8  346C               	retlw	108	;'l'
  1389     08D9  346F               	retlw	111	;'o'
  1390     08DA  3463               	retlw	99	;'c'
  1391     08DB  346B               	retlw	107	;'k'
  1392     08DC  3465               	retlw	101	;'e'
  1393     08DD  3464               	retlw	100	;'d'
  1394     08DE  3400               	retlw	0
  1395     08DF                     STR_21:
  1396     08DF  3457               	retlw	87	;'W'
  1397     08E0  3472               	retlw	114	;'r'
  1398     08E1  346F               	retlw	111	;'o'
  1399     08E2  346E               	retlw	110	;'n'
  1400     08E3  3467               	retlw	103	;'g'
  1401     08E4  3420               	retlw	32	;' '
  1402     08E5  3450               	retlw	80	;'P'
  1403     08E6  3461               	retlw	97	;'a'
  1404     08E7  3473               	retlw	115	;'s'
  1405     08E8  3473               	retlw	115	;'s'
  1406     08E9  3477               	retlw	119	;'w'
  1407     08EA  346F               	retlw	111	;'o'
  1408     08EB  3472               	retlw	114	;'r'
  1409     08EC  3464               	retlw	100	;'d'
  1410     08ED  3400               	retlw	0
  1411     08EE                     STR_18:
  1412     08EE  3445               	retlw	69	;'E'
  1413     08EF  346E               	retlw	110	;'n'
  1414     08F0  3474               	retlw	116	;'t'
  1415     08F1  3465               	retlw	101	;'e'
  1416     08F2  3472               	retlw	114	;'r'
  1417     08F3  3420               	retlw	32	;' '
  1418     08F4  3450               	retlw	80	;'P'
  1419     08F5  3461               	retlw	97	;'a'
  1420     08F6  3473               	retlw	115	;'s'
  1421     08F7  3473               	retlw	115	;'s'
  1422     08F8  3477               	retlw	119	;'w'
  1423     08F9  346F               	retlw	111	;'o'
  1424     08FA  3472               	retlw	114	;'r'
  1425     08FB  3464               	retlw	100	;'d'
  1426     08FC  3400               	retlw	0
  1427     08FD                     STR_37:
  1428     08FD  344E               	retlw	78	;'N'
  1429     08FE  3445               	retlw	69	;'E'
  1430     08FF  3457               	retlw	87	;'W'
  1431     0900  3420               	retlw	32	;' '
  1432     0901  3450               	retlw	80	;'P'
  1433     0902  3441               	retlw	65	;'A'
  1434     0903  3453               	retlw	83	;'S'
  1435     0904  3453               	retlw	83	;'S'
  1436     0905  3457               	retlw	87	;'W'
  1437     0906  344F               	retlw	79	;'O'
  1438     0907  3452               	retlw	82	;'R'
  1439     0908  3444               	retlw	68	;'D'
  1440     0909  3420               	retlw	32	;' '
  1441     090A  3400               	retlw	0
  1442     090B                     STR_30:
  1443     090B  344E               	retlw	78	;'N'
  1444     090C  346F               	retlw	111	;'o'
  1445     090D  3420               	retlw	32	;' '
  1446     090E  344C               	retlw	76	;'L'
  1447     090F  346F               	retlw	111	;'o'
  1448     0910  3467               	retlw	103	;'g'
  1449     0911  3473               	retlw	115	;'s'
  1450     0912  3420               	retlw	32	;' '
  1451     0913  3446               	retlw	70	;'F'
  1452     0914  346F               	retlw	111	;'o'
  1453     0915  3475               	retlw	117	;'u'
  1454     0916  346E               	retlw	110	;'n'
  1455     0917  3464               	retlw	100	;'d'
  1456     0918  3400               	retlw	0
  1457     0919                     STR_20:
  1458     0919  344C               	retlw	76	;'L'
  1459     091A  346F               	retlw	111	;'o'
  1460     091B  3467               	retlw	103	;'g'
  1461     091C  3469               	retlw	105	;'i'
  1462     091D  346E               	retlw	110	;'n'
  1463     091E  3420               	retlw	32	;' '
  1464     091F  3453               	retlw	83	;'S'
  1465     0920  3475               	retlw	117	;'u'
  1466     0921  3463               	retlw	99	;'c'
  1467     0922  3463               	retlw	99	;'c'
  1468     0923  3465               	retlw	101	;'e'
  1469     0924  3473               	retlw	115	;'s'
  1470     0925  3473               	retlw	115	;'s'
  1471     0926  3400               	retlw	0
  1472     0927                     STR_35:
  1473     0927  344E               	retlw	78	;'N'
  1474     0928  3445               	retlw	69	;'E'
  1475     0929  3457               	retlw	87	;'W'
  1476     092A  3420               	retlw	32	;' '
  1477     092B  3450               	retlw	80	;'P'
  1478     092C  3441               	retlw	65	;'A'
  1479     092D  3453               	retlw	83	;'S'
  1480     092E  3453               	retlw	83	;'S'
  1481     092F  3457               	retlw	87	;'W'
  1482     0930  344F               	retlw	79	;'O'
  1483     0931  3452               	retlw	82	;'R'
  1484     0932  3444               	retlw	68	;'D'
  1485     0933  3400               	retlw	0
  1486     0934                     STR_36:
  1487     0934  3452               	retlw	82	;'R'
  1488     0935  3445               	retlw	69	;'E'
  1489     0936  342D               	retlw	45	;'-'
  1490     0937  3445               	retlw	69	;'E'
  1491     0938  344E               	retlw	78	;'N'
  1492     0939  3454               	retlw	84	;'T'
  1493     093A  3445               	retlw	69	;'E'
  1494     093B  3452               	retlw	82	;'R'
  1495     093C  3420               	retlw	32	;' '
  1496     093D  3450               	retlw	80	;'P'
  1497     093E  3457               	retlw	87	;'W'
  1498     093F  3444               	retlw	68	;'D'
  1499     0940  3400               	retlw	0
  1500     0941                     STR_31:
  1501     0941  344C               	retlw	76	;'L'
  1502     0942  346F               	retlw	111	;'o'
  1503     0943  3467               	retlw	103	;'g'
  1504     0944  3473               	retlw	115	;'s'
  1505     0945  3420               	retlw	32	;' '
  1506     0946  3443               	retlw	67	;'C'
  1507     0947  346C               	retlw	108	;'l'
  1508     0948  3465               	retlw	101	;'e'
  1509     0949  3461               	retlw	97	;'a'
  1510     094A  3472               	retlw	114	;'r'
  1511     094B  3465               	retlw	101	;'e'
  1512     094C  3464               	retlw	100	;'d'
  1513     094D  3400               	retlw	0
  1514     094E                     STR_26:
  1515     094E  3444               	retlw	68	;'D'
  1516     094F  346F               	retlw	111	;'o'
  1517     0950  3477               	retlw	119	;'w'
  1518     0951  346E               	retlw	110	;'n'
  1519     0952  346C               	retlw	108	;'l'
  1520     0953  346F               	retlw	111	;'o'
  1521     0954  3461               	retlw	97	;'a'
  1522     0955  3464               	retlw	100	;'d'
  1523     0956  3420               	retlw	32	;' '
  1524     0957  344C               	retlw	76	;'L'
  1525     0958  346F               	retlw	111	;'o'
  1526     0959  3467               	retlw	103	;'g'
  1527     095A  3400               	retlw	0
  1528     095B                     STR_33:
  1529     095B  3473               	retlw	115	;'s'
  1530     095C  3461               	retlw	97	;'a'
  1531     095D  3476               	retlw	118	;'v'
  1532     095E  3469               	retlw	105	;'i'
  1533     095F  346E               	retlw	110	;'n'
  1534     0960  3467               	retlw	103	;'g'
  1535     0961  342E               	retlw	46	;'.'
  1536     0962  342E               	retlw	46	;'.'
  1537     0963  342E               	retlw	46	;'.'
  1538     0964  342E               	retlw	46	;'.'
  1539     0965  342E               	retlw	46	;'.'
  1540     0966  3400               	retlw	0
  1541     0967                     STR_34:
  1542     0967  3465               	retlw	101	;'e'
  1543     0968  3478               	retlw	120	;'x'
  1544     0969  3469               	retlw	105	;'i'
  1545     096A  3474               	retlw	116	;'t'
  1546     096B  3469               	retlw	105	;'i'
  1547     096C  346E               	retlw	110	;'n'
  1548     096D  3467               	retlw	103	;'g'
  1549     096E  342E               	retlw	46	;'.'
  1550     096F  342E               	retlw	46	;'.'
  1551     0970  342E               	retlw	46	;'.'
  1552     0971  342E               	retlw	46	;'.'
  1553     0972  3400               	retlw	0
  1554     0973                     STR_25:
  1555     0973  3443               	retlw	67	;'C'
  1556     0974  346C               	retlw	108	;'l'
  1557     0975  3465               	retlw	101	;'e'
  1558     0976  3461               	retlw	97	;'a'
  1559     0977  3472               	retlw	114	;'r'
  1560     0978  3420               	retlw	32	;' '
  1561     0979  344C               	retlw	76	;'L'
  1562     097A  346F               	retlw	111	;'o'
  1563     097B  3467               	retlw	103	;'g'
  1564     097C  3400               	retlw	0
  1565     097D                     STR_27:
  1566     097D  3453               	retlw	83	;'S'
  1567     097E  3465               	retlw	101	;'e'
  1568     097F  3474               	retlw	116	;'t'
  1569     0980  3420               	retlw	32	;' '
  1570     0981  3454               	retlw	84	;'T'
  1571     0982  3469               	retlw	105	;'i'
  1572     0983  346D               	retlw	109	;'m'
  1573     0984  3465               	retlw	101	;'e'
  1574     0985  3472               	retlw	114	;'r'
  1575     0986  3400               	retlw	0
  1576     0987                     STR_39:
  1577     0987  344D               	retlw	77	;'M'
  1578     0988  3449               	retlw	73	;'I'
  1579     0989  3453               	retlw	83	;'S'
  1580     098A  344D               	retlw	77	;'M'
  1581     098B  3441               	retlw	65	;'A'
  1582     098C  3454               	retlw	84	;'T'
  1583     098D  3443               	retlw	67	;'C'
  1584     098E  3448               	retlw	72	;'H'
  1585     098F  3400               	retlw	0
  1586     0990                     STR_32:
  1587     0990  3448               	retlw	72	;'H'
  1588     0991  3448               	retlw	72	;'H'
  1589     0992  343A               	retlw	58	;':'
  1590     0993  344D               	retlw	77	;'M'
  1591     0994  344D               	retlw	77	;'M'
  1592     0995  343A               	retlw	58	;':'
  1593     0996  3453               	retlw	83	;'S'
  1594     0997  3453               	retlw	83	;'S'
  1595     0998  3400               	retlw	0
  1596     0999                     STR_24:
  1597     0999  3456               	retlw	86	;'V'
  1598     099A  3469               	retlw	105	;'i'
  1599     099B  3465               	retlw	101	;'e'
  1600     099C  3477               	retlw	119	;'w'
  1601     099D  3420               	retlw	32	;' '
  1602     099E  344C               	retlw	76	;'L'
  1603     099F  346F               	retlw	111	;'o'
  1604     09A0  3467               	retlw	103	;'g'
  1605     09A1  3400               	retlw	0
  1606     09A2                     STR_38:
  1607     09A2  3420               	retlw	32	;' '
  1608     09A3  3420               	retlw	32	;' '
  1609     09A4  3420               	retlw	32	;' '
  1610     09A5  3420               	retlw	32	;' '
  1611     09A6  3453               	retlw	83	;'S'
  1612     09A7  3445               	retlw	69	;'E'
  1613     09A8  3454               	retlw	84	;'T'
  1614     09A9  3400               	retlw	0
  1615     09AA                     STR_48:
  1616     09AA  3420               	retlw	32	;' '
  1617     09AB  3420               	retlw	32	;' '
  1618     09AC  3420               	retlw	32	;' '
  1619     09AD  3420               	retlw	32	;' '
  1620     09AE  3420               	retlw	32	;' '
  1621     09AF  3420               	retlw	32	;' '
  1622     09B0  3400               	retlw	0
  1623     09B1                     STR_29:
  1624     09B1  3445               	retlw	69	;'E'
  1625     09B2  3478               	retlw	120	;'x'
  1626     09B3  3469               	retlw	105	;'i'
  1627     09B4  3474               	retlw	116	;'t'
  1628     09B5  3400               	retlw	0
  1629     09B6                     STR_46:
  1630     09B6  342E               	retlw	46	;'.'
  1631     09B7  3420               	retlw	32	;' '
  1632     09B8  3420               	retlw	32	;' '
  1633     09B9  3400               	retlw	0
  1634     09BA                     STR_14:
  1635     09BA  3443               	retlw	67	;'C'
  1636     09BB  3420               	retlw	32	;' '
  1637     09BC  3400               	retlw	0
  1638     09BD                     STR_7:
  1639     09BD  344F               	retlw	79	;'O'
  1640     09BE  344E               	retlw	78	;'N'
  1641     09BF  3400               	retlw	0
  1642     09C0                     STR_3:
  1643     09C0  3447               	retlw	71	;'G'
  1644     09C1  3431               	retlw	49	;'1'
  1645     09C2  3400               	retlw	0
  1646     09C3                     STR_4:
  1647     09C3  3447               	retlw	71	;'G'
  1648     09C4  3432               	retlw	50	;'2'
  1649     09C5  3400               	retlw	0
  1650     09C6                     STR_5:
  1651     09C6  3447               	retlw	71	;'G'
  1652     09C7  3433               	retlw	51	;'3'
  1653     09C8  3400               	retlw	0
  1654     09C9                     STR_6:
  1655     09C9  3447               	retlw	71	;'G'
  1656     09CA  3434               	retlw	52	;'4'
  1657     09CB  3400               	retlw	0
  1658     09CC                     STR_1:
  1659     09CC  3447               	retlw	71	;'G'
  1660     09CD  344E               	retlw	78	;'N'
  1661     09CE  3400               	retlw	0
  1662     09CF                     STR_2:
  1663     09CF  3447               	retlw	71	;'G'
  1664     09D0  3452               	retlw	82	;'R'
  1665     09D1  3400               	retlw	0
  1666     08EE                     STR_19          equ	STR_18
  1667     08EE                     STR_23          equ	STR_18
  1668     09CF                     STR_13          equ	STR_2
  1669     09CC                     STR_8           equ	STR_1
  1670     0927                     STR_40          equ	STR_35
  1671     09C9                     STR_12          equ	STR_6
  1672     09C6                     STR_11          equ	STR_5
  1673     09C3                     STR_10          equ	STR_4
  1674     09C0                     STR_9           equ	STR_3
  1675     09AD                     STR_47          equ	STR_48+3
  1676     083F                     STR_43          equ	STR_45+28
  1677     083F                     STR_49          equ	STR_45+28
  1678                           
  1679                           	psect	cinit
  1680     07D1                     start_initialization:	
  1681                           ; #config settings
  1682                           
  1683     07D1                     __initialization:
  1684                           
  1685                           ; Initialize objects allocated to BANK1
  1686     07D1  1383               	bcf	3,7	;select IRP bank0
  1687     07D2  30D7               	movlw	low (__pdataBANK1+55)
  1688     07D3  00FD               	movwf	btemp+-1
  1689     07D4  3013               	movlw	high __pidataBANK1
  1690     07D5  00FE               	movwf	btemp
  1691     07D6  30A3               	movlw	low __pidataBANK1
  1692     07D7  00FF               	movwf	btemp+1
  1693     07D8  30A0               	movlw	low __pdataBANK1
  1694     07D9  0084               	movwf	4
  1695     07DA  160A  118A  2130  120A  118A  	fcall	init_ram0
  1696                           
  1697                           ; Initialize objects allocated to BANK0
  1698     07DF  306E               	movlw	low (__pdataBANK0+3)
  1699     07E0  00FD               	movwf	btemp+-1
  1700     07E1  3010               	movlw	high __pidataBANK0
  1701     07E2  00FE               	movwf	btemp
  1702     07E3  308C               	movlw	low __pidataBANK0
  1703     07E4  00FF               	movwf	btemp+1
  1704     07E5  306B               	movlw	low __pdataBANK0
  1705     07E6  0084               	movwf	4
  1706     07E7  160A  118A  2130  120A  118A  	fcall	init_ram0
  1707                           
  1708                           ; Clear objects allocated to BANK1
  1709     07EC  30D7               	movlw	low __pbssBANK1
  1710     07ED  0084               	movwf	4
  1711     07EE  30E0               	movlw	low (__pbssBANK1+9)
  1712     07EF  120A  118A  2003  120A  118A  	fcall	clear_ram0
  1713                           
  1714                           ; Clear objects allocated to BANK0
  1715     07F4  3051               	movlw	low __pbssBANK0
  1716     07F5  0084               	movwf	4
  1717     07F6  306B               	movlw	low (__pbssBANK0+26)
  1718     07F7  120A  118A  2003  120A  118A  	fcall	clear_ram0
  1719     07FC                     end_of_initialization:	
  1720                           ;End of C runtime variable initialization code
  1721                           
  1722     07FC                     __end_of__initialization:
  1723     07FC  0183               	clrf	3
  1724     07FD  160A  118A  2E9D   	ljmp	_main	;jump to C main() function
  1725                           
  1726                           	psect	bssBANK0
  1727     0051                     __pbssBANK0:
  1728     0051                     _address:
  1729     0051                     	ds	2
  1730     0053                     _adc_val:
  1731     0053                     	ds	2
  1732     0055                     _pos:
  1733     0055                     	ds	2
  1734     0057                     _lock_timer:
  1735     0057                     	ds	2
  1736     0059                     _prev_pos:
  1737     0059                     	ds	1
  1738     005A                     _menu_option:
  1739     005A                     	ds	1
  1740     005B                     _lock_flag:
  1741     005B                     	ds	1
  1742     005C                     _login_delay:
  1743     005C                     	ds	1
  1744     005D                     _login_index:
  1745     005D                     	ds	1
  1746     005E                     _user_pass:
  1747     005E                     	ds	5
  1748     0063                     _speed:
  1749     0063                     	ds	3
  1750     0066                     _clock_reg:
  1751     0066                     	ds	3
  1752     0069                     _attempt_s:
  1753     0069                     	ds	2
  1754                           
  1755                           	psect	dataBANK0
  1756     006B                     __pdataBANK0:
  1757     006B                     read_digital_keypad@once:
  1758     006B                     	ds	1
  1759     006C                     _attempts_left:
  1760     006C                     	ds	1
  1761     006D                     _attempts:
  1762     006D                     	ds	1
  1763                           
  1764                           	psect	bssBANK1
  1765     00D7                     __pbssBANK1:
  1766     00D7                     _time:
  1767     00D7                     	ds	9
  1768                           
  1769                           	psect	dataBANK1
  1770     00A0                     __pdataBANK1:
  1771     00A0                     _event:
  1772     00A0                     	ds	16
  1773     00B0                     _menu:
  1774     00B0                     	ds	12
  1775     00BC                     _gear:
  1776     00BC                     	ds	12
  1777     00C8                     change_password@F1070:
  1778     00C8                     	ds	5
  1779     00CD                     change_password@F1068:
  1780     00CD                     	ds	5
  1781     00D2                     _pass:
  1782     00D2                     	ds	5
  1783                           
  1784                           	psect	inittext
  1785     112C                     init_fetch0:	
  1786                           ;	Called with low address in FSR and high address in W
  1787                           
  1788     112C  087E               	movf	btemp,w
  1789     112D  008A               	movwf	10
  1790     112E  087F               	movf	btemp+1,w
  1791     112F  0082               	movwf	2
  1792     1130                     init_ram0:	
  1793                           ;Called with:
  1794                           ;	high address of idata address in btemp 
  1795                           ;	low address of idata address in btemp+1 
  1796                           ;	low address of data in FSR
  1797                           ;	high address + 1 of data in btemp-1
  1798                           
  1799     1130  160A  118A  212C  160A  118A  	fcall	init_fetch0
  1800     1135  0080               	movwf	0
  1801     1136  0A84               	incf	4,f
  1802     1137  0804               	movf	4,w
  1803     1138  067D               	xorwf	btemp+-1,w
  1804     1139  1903               	btfsc	3,2
  1805     113A  3400               	retlw	0
  1806     113B  0AFF               	incf	btemp+1,f
  1807     113C  1903               	btfsc	3,2
  1808     113D  0AFE               	incf	btemp,f
  1809     113E  2930               	goto	init_ram0
  1810                           
  1811                           	psect	clrtext
  1812     0003                     clear_ram0:	
  1813                           ;	Called with FSR containing the base address, and
  1814                           ;	W with the last address+1
  1815                           
  1816     0003  0064               	clrwdt	;clear the watchdog before getting into this loop
  1817     0004                     clrloop0:
  1818     0004  0180               	clrf	0	;clear RAM location pointed to by FSR
  1819     0005  0A84               	incf	4,f	;increment pointer
  1820     0006  0604               	xorwf	4,w	;XOR with final address
  1821     0007  1903               	btfsc	3,2	;have we reached the end yet?
  1822     0008  3400               	retlw	0	;all done for this memory range, return
  1823     0009  0604               	xorwf	4,w	;XOR again to restore value
  1824     000A  2804               	goto	clrloop0	;do the next byte
  1825                           
  1826                           	psect	cstackCOMMON
  1827     0070                     __pcstackCOMMON:
  1828     0070                     ?_i2c_stop:
  1829     0070                     ?_read_ds1307:	
  1830                           ; 1 bytes @ 0x0
  1831                           
  1832     0070                     ?_init_adc:	
  1833                           ; 1 bytes @ 0x0
  1834                           
  1835     0070                     ?_init_clcd:	
  1836                           ; 1 bytes @ 0x0
  1837                           
  1838     0070                     ?_init_digital_keypad:	
  1839                           ; 1 bytes @ 0x0
  1840                           
  1841     0070                     ?_init_uart:	
  1842                           ; 1 bytes @ 0x0
  1843                           
  1844     0070                     ?_read_digital_keypad:	
  1845                           ; 1 bytes @ 0x0
  1846                           
  1847     0070                     ?_clcd_write:	
  1848                           ; 1 bytes @ 0x0
  1849                           
  1850     0070                     ?_dashboard:	
  1851                           ; 1 bytes @ 0x0
  1852                           
  1853     0070                     ?_menu_screen:	
  1854                           ; 1 bytes @ 0x0
  1855                           
  1856     0070                     ?_view_log:	
  1857                           ; 1 bytes @ 0x0
  1858                           
  1859     0070                     ?_clear_log:	
  1860                           ; 1 bytes @ 0x0
  1861                           
  1862     0070                     ?_download_log:	
  1863                           ; 1 bytes @ 0x0
  1864                           
  1865     0070                     ?_set_time:	
  1866                           ; 1 bytes @ 0x0
  1867                           
  1868     0070                     ?_store_event:	
  1869                           ; 1 bytes @ 0x0
  1870                           
  1871     0070                     ?_i2c_wait_for_idle:	
  1872                           ; 1 bytes @ 0x0
  1873                           
  1874     0070                     ?_i2c_start:	
  1875                           ; 1 bytes @ 0x0
  1876                           
  1877     0070                     ?_i2c_rep_start:	
  1878                           ; 1 bytes @ 0x0
  1879                           
  1880     0070                     ?_i2c_read:	
  1881                           ; 1 bytes @ 0x0
  1882                           
  1883     0070                     ?_init_ds1307:	
  1884                           ; 1 bytes @ 0x0
  1885                           
  1886     0070                     ?_init_config:	
  1887                           ; 1 bytes @ 0x0
  1888                           
  1889     0070                     ?_main:	
  1890                           ; 1 bytes @ 0x0
  1891                           
  1892     0070                     ?_read_external_eeprom:	
  1893                           ; 1 bytes @ 0x0
  1894                           
  1895     0070                     ?_init_display_controller:	
  1896                           ; 1 bytes @ 0x0
  1897                           
  1898     0070                     ?_uart_tx_char:	
  1899                           ; 1 bytes @ 0x0
  1900                           
  1901     0070                     ?___bmul:	
  1902                           ; 1 bytes @ 0x0
  1903                           
  1904     0070                     ?_i2c_write:	
  1905                           ; 1 bytes @ 0x0
  1906                           
  1907     0070                     ?_read_adc:	
  1908                           ; 2 bytes @ 0x0
  1909                           
  1910     0070                     ?_my_strcmp:	
  1911                           ; 2 bytes @ 0x0
  1912                           
  1913     0070                     ?___wmul:	
  1914                           ; 2 bytes @ 0x0
  1915                           
  1916     0070                     ?___awdiv:	
  1917                           ; 2 bytes @ 0x0
  1918                           
  1919     0070                     ?___awmod:	
  1920                           ; 2 bytes @ 0x0
  1921                           
  1922     0070                     ?___lwdiv:	
  1923                           ; 2 bytes @ 0x0
  1924                           
  1925     0070                     ?___lwmod:	
  1926                           ; 2 bytes @ 0x0
  1927                           
  1928     0070                     ?___lldiv:	
  1929                           ; 2 bytes @ 0x0
  1930                           
  1931     0070                     i2c_read@ack:	
  1932                           ; 4 bytes @ 0x0
  1933                           
  1934     0070                     i2c_write@data:	
  1935                           ; 1 bytes @ 0x0
  1936                           
  1937     0070                     clcd_write@mode:	
  1938                           ; 1 bytes @ 0x0
  1939                           
  1940     0070                     my_strcmp@str1:	
  1941                           ; 1 bytes @ 0x0
  1942                           
  1943     0070                     ___bmul@multiplicand:	
  1944                           ; 1 bytes @ 0x0
  1945                           
  1946     0070                     ___wmul@multiplier:	
  1947                           ; 1 bytes @ 0x0
  1948                           
  1949     0070                     ___awdiv@divisor:	
  1950                           ; 2 bytes @ 0x0
  1951                           
  1952     0070                     ___awmod@divisor:	
  1953                           ; 2 bytes @ 0x0
  1954                           
  1955     0070                     ___lwdiv@divisor:	
  1956                           ; 2 bytes @ 0x0
  1957                           
  1958     0070                     ___lwmod@divisor:	
  1959                           ; 2 bytes @ 0x0
  1960                           
  1961     0070                     ___lldiv@divisor:	
  1962                           ; 2 bytes @ 0x0
  1963                           
  1964     0070                     ??_i2c_stop:	
  1965                           ; 4 bytes @ 0x0
  1966                           
  1967     0070                     ??_init_adc:	
  1968                           ; 1 bytes @ 0x0
  1969                           
  1970     0070                     ??_init_digital_keypad:	
  1971                           ; 1 bytes @ 0x0
  1972                           
  1973     0070                     ??_init_uart:	
  1974                           ; 1 bytes @ 0x0
  1975                           
  1976     0070                     ??_read_digital_keypad:	
  1977                           ; 1 bytes @ 0x0
  1978                           
  1979     0070                     ??_i2c_wait_for_idle:	
  1980                           ; 1 bytes @ 0x0
  1981                           
  1982     0070                     ??_i2c_start:	
  1983                           ; 1 bytes @ 0x0
  1984                           
  1985     0070                     ??_i2c_rep_start:	
  1986                           ; 1 bytes @ 0x0
  1987                           
  1988     0070                     ??_i2c_read:	
  1989                           ; 1 bytes @ 0x0
  1990                           
  1991     0070                     ??_i2c_write:	
  1992                           ; 1 bytes @ 0x0
  1993                           
  1994                           
  1995                           ; 1 bytes @ 0x0
  1996     0070                     	ds	1
  1997     0071                     ?_write_external_eeprom:
  1998     0071                     i2c_read@data:	
  1999                           ; 1 bytes @ 0x1
  2000                           
  2001     0071                     write_external_eeprom@data:	
  2002                           ; 1 bytes @ 0x1
  2003                           
  2004     0071                     read_digital_keypad@mode:	
  2005                           ; 1 bytes @ 0x1
  2006                           
  2007     0071                     my_strcmp@str2:	
  2008                           ; 1 bytes @ 0x1
  2009                           
  2010     0071                     ___bmul@product:	
  2011                           ; 1 bytes @ 0x1
  2012                           
  2013     0071                     ??_clcd_write:	
  2014                           ; 1 bytes @ 0x1
  2015                           
  2016     0071                     ??___bmul:	
  2017                           ; 1 bytes @ 0x1
  2018                           
  2019                           
  2020                           ; 1 bytes @ 0x1
  2021     0071                     	ds	1
  2022     0072                     read_ds1307@addr:
  2023     0072                     read_external_eeprom@address:	
  2024                           ; 1 bytes @ 0x2
  2025                           
  2026     0072                     ___bmul@multiplier:	
  2027                           ; 1 bytes @ 0x2
  2028                           
  2029     0072                     write_external_eeprom@wait:	
  2030                           ; 1 bytes @ 0x2
  2031                           
  2032     0072                     ___wmul@multiplicand:	
  2033                           ; 2 bytes @ 0x2
  2034                           
  2035     0072                     ___awdiv@dividend:	
  2036                           ; 2 bytes @ 0x2
  2037                           
  2038     0072                     ___awmod@dividend:	
  2039                           ; 2 bytes @ 0x2
  2040                           
  2041     0072                     ___lwdiv@dividend:	
  2042                           ; 2 bytes @ 0x2
  2043                           
  2044     0072                     ___lwmod@dividend:	
  2045                           ; 2 bytes @ 0x2
  2046                           
  2047     0072                     ??_read_ds1307:	
  2048                           ; 2 bytes @ 0x2
  2049                           
  2050     0072                     ??_write_external_eeprom:	
  2051                           ; 1 bytes @ 0x2
  2052                           
  2053     0072                     ??_read_external_eeprom:	
  2054                           ; 1 bytes @ 0x2
  2055                           
  2056     0072                     ??_read_adc:	
  2057                           ; 1 bytes @ 0x2
  2058                           
  2059     0072                     ??_my_strcmp:	
  2060                           ; 1 bytes @ 0x2
  2061                           
  2062                           
  2063                           ; 1 bytes @ 0x2
  2064     0072                     	ds	1
  2065     0073                     read_ds1307@data:
  2066     0073                     read_external_eeprom@data:	
  2067                           ; 1 bytes @ 0x3
  2068                           
  2069     0073                     clcd_write@byte:	
  2070                           ; 1 bytes @ 0x3
  2071                           
  2072     0073                     read_adc@adc_reg_val:	
  2073                           ; 1 bytes @ 0x3
  2074                           
  2075                           
  2076                           ; 2 bytes @ 0x3
  2077     0073                     	ds	1
  2078     0074                     ?_clcd_print:
  2079     0074                     ?_get_time:	
  2080                           ; 1 bytes @ 0x4
  2081                           
  2082     0074                     get_time@clock_reg:	
  2083                           ; 1 bytes @ 0x4
  2084                           
  2085     0074                     write_external_eeprom@address:	
  2086                           ; 1 bytes @ 0x4
  2087                           
  2088     0074                     uart_tx_char@byte:	
  2089                           ; 1 bytes @ 0x4
  2090                           
  2091     0074                     ___awdiv@counter:	
  2092                           ; 1 bytes @ 0x4
  2093                           
  2094     0074                     ___awmod@counter:	
  2095                           ; 1 bytes @ 0x4
  2096                           
  2097     0074                     ___lwmod@counter:	
  2098                           ; 1 bytes @ 0x4
  2099                           
  2100     0074                     clcd_print@str:	
  2101                           ; 1 bytes @ 0x4
  2102                           
  2103     0074                     ___wmul@product:	
  2104                           ; 2 bytes @ 0x4
  2105                           
  2106     0074                     ___lwdiv@quotient:	
  2107                           ; 2 bytes @ 0x4
  2108                           
  2109     0074                     ___lldiv@dividend:	
  2110                           ; 2 bytes @ 0x4
  2111                           
  2112     0074                     ??_init_display_controller:	
  2113                           ; 4 bytes @ 0x4
  2114                           
  2115     0074                     ??_uart_tx_char:	
  2116                           ; 1 bytes @ 0x4
  2117                           
  2118     0074                     ??___wmul:	
  2119                           ; 1 bytes @ 0x4
  2120                           
  2121     0074                     ??___awdiv:	
  2122                           ; 1 bytes @ 0x4
  2123                           
  2124     0074                     ??___awmod:	
  2125                           ; 1 bytes @ 0x4
  2126                           
  2127     0074                     ??___lwdiv:	
  2128                           ; 1 bytes @ 0x4
  2129                           
  2130     0074                     ??___lwmod:	
  2131                           ; 1 bytes @ 0x4
  2132                           
  2133                           
  2134                           ; 1 bytes @ 0x4
  2135     0074                     	ds	1
  2136     0075                     ?_uart_tx_string:
  2137     0075                     read_adc@channel:	
  2138                           ; 1 bytes @ 0x5
  2139                           
  2140     0075                     ___awdiv@sign:	
  2141                           ; 1 bytes @ 0x5
  2142                           
  2143     0075                     ___awmod@sign:	
  2144                           ; 1 bytes @ 0x5
  2145                           
  2146     0075                     uart_tx_string@s:	
  2147                           ; 1 bytes @ 0x5
  2148                           
  2149     0075                     ??_store_event:	
  2150                           ; 2 bytes @ 0x5
  2151                           
  2152     0075                     ??_get_time:	
  2153                           ; 1 bytes @ 0x5
  2154                           
  2155                           
  2156                           ; 1 bytes @ 0x5
  2157     0075                     	ds	1
  2158     0076                     ?___xxtofl:
  2159     0076                     clcd_print@addr:	
  2160                           ; 4 bytes @ 0x6
  2161                           
  2162     0076                     ___lwdiv@counter:	
  2163                           ; 1 bytes @ 0x6
  2164                           
  2165     0076                     ___awdiv@quotient:	
  2166                           ; 1 bytes @ 0x6
  2167                           
  2168     0076                     ___xxtofl@val:	
  2169                           ; 2 bytes @ 0x6
  2170                           
  2171     0076                     ??_init_clcd:	
  2172                           ; 4 bytes @ 0x6
  2173                           
  2174                           
  2175                           ; 1 bytes @ 0x6
  2176     0076                     	ds	1
  2177     0077                     ?_display_time:
  2178     0077                     display_time@clock_reg:	
  2179                           ; 1 bytes @ 0x7
  2180                           
  2181     0077                     ??_clcd_print:	
  2182                           ; 1 bytes @ 0x7
  2183                           
  2184     0077                     ??_view_log:	
  2185                           ; 1 bytes @ 0x7
  2186                           
  2187     0077                     ??_clear_log:	
  2188                           ; 1 bytes @ 0x7
  2189                           
  2190     0077                     ??_download_log:	
  2191                           ; 1 bytes @ 0x7
  2192                           
  2193     0077                     ??_uart_tx_string:	
  2194                           ; 1 bytes @ 0x7
  2195                           
  2196                           
  2197                           ; 1 bytes @ 0x7
  2198     0077                     	ds	1
  2199     0078                     ?_write_ds1307:
  2200     0078                     ?_clcd_putch:	
  2201                           ; 1 bytes @ 0x8
  2202                           
  2203     0078                     write_ds1307@data:	
  2204                           ; 1 bytes @ 0x8
  2205                           
  2206     0078                     clcd_putch@addr:	
  2207                           ; 1 bytes @ 0x8
  2208                           
  2209     0078                     ??_display_time:	
  2210                           ; 1 bytes @ 0x8
  2211                           
  2212     0078                     ??___lldiv:	
  2213                           ; 1 bytes @ 0x8
  2214                           
  2215                           
  2216                           ; 1 bytes @ 0x8
  2217     0078                     	ds	1
  2218     0079                     write_ds1307@addr:
  2219     0079                     clcd_putch@data:	
  2220                           ; 1 bytes @ 0x9
  2221                           
  2222     0079                     ___lldiv@quotient:	
  2223                           ; 1 bytes @ 0x9
  2224                           
  2225     0079                     ??_write_ds1307:	
  2226                           ; 4 bytes @ 0x9
  2227                           
  2228     0079                     ??_clcd_putch:	
  2229                           ; 1 bytes @ 0x9
  2230                           
  2231                           
  2232                           ; 1 bytes @ 0x9
  2233     0079                     	ds	1
  2234     007A                     ?_login_screen:
  2235     007A                     ?_change_password:	
  2236                           ; 1 bytes @ 0xA
  2237                           
  2238     007A                     init_ds1307@dummy:	
  2239                           ; 1 bytes @ 0xA
  2240                           
  2241     007A                     login_screen@oper:	
  2242                           ; 1 bytes @ 0xA
  2243                           
  2244     007A                     change_password@main_pwd:	
  2245                           ; 1 bytes @ 0xA
  2246                           
  2247     007A                     download_log@total_log:	
  2248                           ; 1 bytes @ 0xA
  2249                           
  2250     007A                     ??_menu_screen:	
  2251                           ; 1 bytes @ 0xA
  2252                           
  2253     007A                     ??_init_ds1307:	
  2254                           ; 1 bytes @ 0xA
  2255                           
  2256     007A                     ??___xxtofl:	
  2257                           ; 1 bytes @ 0xA
  2258                           
  2259                           
  2260                           ; 1 bytes @ 0xA
  2261     007A                     	ds	1
  2262     007B                     download_log@i:
  2263     007B                     ??_login_screen:	
  2264                           ; 1 bytes @ 0xB
  2265                           
  2266     007B                     ??_change_password:	
  2267                           ; 1 bytes @ 0xB
  2268                           
  2269                           
  2270                           ; 1 bytes @ 0xB
  2271     007B                     	ds	1
  2272     007C                     store_event@i:
  2273     007C                     download_log@eeprom_addr:	
  2274                           ; 1 bytes @ 0xC
  2275                           
  2276                           
  2277                           ; 1 bytes @ 0xC
  2278     007C                     	ds	1
  2279     007D                     ___lldiv@counter:
  2280                           
  2281                           ; 1 bytes @ 0xD
  2282     007D                     	ds	1
  2283     007E                     ??_init_config:
  2284     007E                     ??_main:	
  2285                           ; 1 bytes @ 0xE
  2286                           
  2287                           
  2288                           	psect	cstackBANK0
  2289     0020                     __pcstackBANK0:	
  2290                           ; 1 bytes @ 0xE
  2291                           
  2292     0020                     ?_init_i2c:
  2293     0020                     login_screen@key:	
  2294                           ; 1 bytes @ 0x0
  2295                           
  2296     0020                     menu_screen@prev_start:	
  2297                           ; 1 bytes @ 0x0
  2298                           
  2299     0020                     ___xxtofl@sign:	
  2300                           ; 1 bytes @ 0x0
  2301                           
  2302     0020                     init_i2c@baud:	
  2303                           ; 1 bytes @ 0x0
  2304                           
  2305     0020                     change_password@confirm_pwd:	
  2306                           ; 4 bytes @ 0x0
  2307                           
  2308     0020                     view_log@line1:	
  2309                           ; 5 bytes @ 0x0
  2310                           
  2311     0020                     ??_set_time:	
  2312                           ; 17 bytes @ 0x0
  2313                           
  2314                           
  2315                           ; 1 bytes @ 0x0
  2316     0020                     	ds	1
  2317     0021                     menu_screen@key:
  2318     0021                     ___xxtofl@exp:	
  2319                           ; 1 bytes @ 0x1
  2320                           
  2321                           
  2322                           ; 1 bytes @ 0x1
  2323     0021                     	ds	1
  2324     0022                     menu_screen@index:
  2325     0022                     ___xxtofl@arg:	
  2326                           ; 1 bytes @ 0x2
  2327                           
  2328                           
  2329                           ; 4 bytes @ 0x2
  2330     0022                     	ds	1
  2331     0023                     menu_screen@start:
  2332                           
  2333                           ; 1 bytes @ 0x3
  2334     0023                     	ds	1
  2335     0024                     ??_init_i2c:
  2336                           
  2337                           ; 1 bytes @ 0x4
  2338     0024                     	ds	1
  2339     0025                     _change_password$376:
  2340                           
  2341                           ; 2 bytes @ 0x5
  2342     0025                     	ds	1
  2343     0026                     ?___fldiv:
  2344     0026                     ___fldiv@a:	
  2345                           ; 4 bytes @ 0x6
  2346                           
  2347                           
  2348                           ; 4 bytes @ 0x6
  2349     0026                     	ds	1
  2350     0027                     change_password@cursor:
  2351     0027                     set_time@clock_reg:	
  2352                           ; 1 bytes @ 0x7
  2353                           
  2354                           
  2355                           ; 3 bytes @ 0x7
  2356     0027                     	ds	1
  2357     0028                     change_password@new_pwd:
  2358                           
  2359                           ; 5 bytes @ 0x8
  2360     0028                     	ds	2
  2361     002A                     set_time@key:
  2362     002A                     ___fldiv@b:	
  2363                           ; 1 bytes @ 0xA
  2364                           
  2365                           
  2366                           ; 4 bytes @ 0xA
  2367     002A                     	ds	1
  2368     002B                     set_time@blink:
  2369                           
  2370                           ; 2 bytes @ 0xB
  2371     002B                     	ds	2
  2372     002D                     set_time@hh:
  2373     002D                     change_password@ch:	
  2374                           ; 1 bytes @ 0xD
  2375                           
  2376                           
  2377                           ; 1 bytes @ 0xD
  2378     002D                     	ds	1
  2379     002E                     set_time@mm:
  2380     002E                     change_password@blink:	
  2381                           ; 1 bytes @ 0xE
  2382                           
  2383     002E                     ??___fldiv:	
  2384                           ; 2 bytes @ 0xE
  2385                           
  2386                           
  2387                           ; 1 bytes @ 0xE
  2388     002E                     	ds	1
  2389     002F                     set_time@ss:
  2390                           
  2391                           ; 1 bytes @ 0xF
  2392     002F                     	ds	1
  2393     0030                     set_time@field:
  2394     0030                     change_password@bit:	
  2395                           ; 1 bytes @ 0x10
  2396                           
  2397                           
  2398                           ; 1 bytes @ 0x10
  2399     0030                     	ds	1
  2400     0031                     change_password@stage:
  2401     0031                     view_log@line2:	
  2402                           ; 1 bytes @ 0x11
  2403                           
  2404                           
  2405                           ; 17 bytes @ 0x11
  2406     0031                     	ds	1
  2407     0032                     change_password@key:
  2408                           
  2409                           ; 1 bytes @ 0x12
  2410     0032                     	ds	1
  2411     0033                     change_password@field:
  2412     0033                     ___fldiv@rem:	
  2413                           ; 1 bytes @ 0x13
  2414                           
  2415                           
  2416                           ; 4 bytes @ 0x13
  2417     0033                     	ds	1
  2418     0034                     change_password@i:
  2419                           
  2420                           ; 1 bytes @ 0x14
  2421     0034                     	ds	3
  2422     0037                     ___fldiv@sign:
  2423                           
  2424                           ; 1 bytes @ 0x17
  2425     0037                     	ds	1
  2426     0038                     ___fldiv@new_exp:
  2427                           
  2428                           ; 2 bytes @ 0x18
  2429     0038                     	ds	2
  2430     003A                     ___fldiv@grs:
  2431                           
  2432                           ; 4 bytes @ 0x1A
  2433     003A                     	ds	4
  2434     003E                     ___fldiv@bexp:
  2435                           
  2436                           ; 1 bytes @ 0x1E
  2437     003E                     	ds	1
  2438     003F                     ___fldiv@aexp:
  2439                           
  2440                           ; 1 bytes @ 0x1F
  2441     003F                     	ds	1
  2442     0040                     ?___fltol:
  2443     0040                     ___fltol@f1:	
  2444                           ; 4 bytes @ 0x20
  2445                           
  2446                           
  2447                           ; 4 bytes @ 0x20
  2448     0040                     	ds	2
  2449     0042                     view_log@i:
  2450                           
  2451                           ; 2 bytes @ 0x22
  2452     0042                     	ds	2
  2453     0044                     view_log@key:
  2454     0044                     ??___fltol:	
  2455                           ; 1 bytes @ 0x24
  2456                           
  2457                           
  2458                           ; 1 bytes @ 0x24
  2459     0044                     	ds	1
  2460     0045                     view_log@total_log:
  2461                           
  2462                           ; 1 bytes @ 0x25
  2463     0045                     	ds	1
  2464     0046                     view_log@log_index:
  2465                           
  2466                           ; 1 bytes @ 0x26
  2467     0046                     	ds	1
  2468     0047                     view_log@eep_addr:
  2469                           
  2470                           ; 2 bytes @ 0x27
  2471     0047                     	ds	1
  2472     0048                     ___fltol@sign1:
  2473                           
  2474                           ; 1 bytes @ 0x28
  2475     0048                     	ds	1
  2476     0049                     ___fltol@exp1:
  2477                           
  2478                           ; 1 bytes @ 0x29
  2479     0049                     	ds	1
  2480     004A                     ??_dashboard:
  2481                           
  2482                           ; 1 bytes @ 0x2A
  2483     004A                     	ds	4
  2484     004E                     dashboard@key:
  2485                           
  2486                           ; 1 bytes @ 0x2E
  2487     004E                     	ds	1
  2488     004F                     main@key:
  2489                           
  2490                           ; 1 bytes @ 0x2F
  2491     004F                     	ds	1
  2492     0050                     main@operation:
  2493                           
  2494                           ; 1 bytes @ 0x30
  2495     0050                     	ds	1
  2496                           
  2497                           	psect	maintext
  2498     169D                     __pmaintext:	
  2499 ;;
  2500 ;;Main: autosize = 0, tempsize = 0, incstack = 0, save=0
  2501 ;;
  2502 ;; *************** function _main *****************
  2503 ;; Defined at:
  2504 ;;		line 35 in file "main.c"
  2505 ;; Parameters:    Size  Location     Type
  2506 ;;		None
  2507 ;; Auto vars:     Size  Location     Type
  2508 ;;  operation       1   48[BANK0 ] unsigned char 
  2509 ;;  key             1   47[BANK0 ] unsigned char 
  2510 ;; Return value:  Size  Location     Type
  2511 ;;                  1    wreg      void 
  2512 ;; Registers used:
  2513 ;;		wreg, fsr0l, fsr0h, status,2, status,0, pclath, btemp1, cstack
  2514 ;; Tracked objects:
  2515 ;;		On entry : B00/0
  2516 ;;		On exit  : 0/0
  2517 ;;		Unchanged: 0/0
  2518 ;; Data sizes:     COMMON   BANK0   BANK1   BANK3   BANK2
  2519 ;;      Params:         0       0       0       0       0
  2520 ;;      Locals:         0       2       0       0       0
  2521 ;;      Temps:          0       0       0       0       0
  2522 ;;      Totals:         0       2       0       0       0
  2523 ;;Total ram usage:        2 bytes
  2524 ;; Hardware stack levels required when called: 6
  2525 ;; This function calls:
  2526 ;;		_change_password
  2527 ;;		_clcd_write
  2528 ;;		_clear_log
  2529 ;;		_dashboard
  2530 ;;		_download_log
  2531 ;;		_init_config
  2532 ;;		_login_screen
  2533 ;;		_menu_screen
  2534 ;;		_read_digital_keypad
  2535 ;;		_set_time
  2536 ;;		_view_log
  2537 ;; This function is called by:
  2538 ;;		Startup code after reset
  2539 ;; This function uses a non-reentrant model
  2540 ;;
  2541                           
  2542     169D                     _main:	
  2543                           ;psect for function _main
  2544                           
  2545     169D                     l3813:	
  2546                           ;incstack = 0
  2547                           ; Regs used in _main: [wreg-fsr0h+status,2+status,0+pclath+btemp1+cstack]
  2548                           
  2549                           
  2550                           ;main.c: 36:     init_config();
  2551     169D  160A  118A  222C  160A  118A  	fcall	_init_config
  2552     16A2                     l3815:
  2553                           
  2554                           ;main.c: 38:     unsigned char key, operation = 0;
  2555     16A2  1283               	bcf	3,5	;RP0=0, select bank0
  2556     16A3  1303               	bcf	3,6	;RP1=0, select bank0
  2557     16A4  01D0               	clrf	main@operation
  2558     16A5                     l3817:
  2559                           
  2560                           ;main.c: 41:     {;main.c: 43:         key = read_digital_keypad(1);
  2561     16A5  3001               	movlw	1
  2562     16A6  120A  158A  21D2  160A  118A  	fcall	_read_digital_keypad
  2563     16AB  1283               	bcf	3,5	;RP0=0, select bank0
  2564     16AC  1303               	bcf	3,6	;RP1=0, select bank0
  2565     16AD  00CF               	movwf	main@key
  2566     16AE                     l3819:
  2567                           
  2568                           ;main.c: 45:         if(key == 0x37)
  2569     16AE  3037               	movlw	55
  2570     16AF  064F               	xorwf	main@key,w
  2571     16B0  1D03               	btfss	3,2
  2572     16B1  2EB3               	goto	u4051
  2573     16B2  2EB4               	goto	u4050
  2574     16B3                     u4051:
  2575     16B3  2EBD               	goto	l3825
  2576     16B4                     u4050:
  2577     16B4                     l3821:
  2578                           
  2579                           ;main.c: 46:         {;main.c: 47:             operation = 1;
  2580     16B4  3001               	movlw	1
  2581     16B5  00D0               	movwf	main@operation
  2582     16B6                     l3823:
  2583                           
  2584                           ;main.c: 48:             clcd_write(0x01, 0);
  2585     16B6  01F0               	clrf	clcd_write@mode
  2586     16B7  3001               	movlw	1
  2587     16B8  160A  118A  236D  160A  118A  	fcall	_clcd_write
  2588     16BD                     l3825:
  2589                           
  2590                           ;main.c: 52:         if(operation == 0)
  2591     16BD  1283               	bcf	3,5	;RP0=0, select bank0
  2592     16BE  1303               	bcf	3,6	;RP1=0, select bank0
  2593     16BF  0850               	movf	main@operation,w
  2594     16C0  1D03               	btfss	3,2
  2595     16C1  2EC3               	goto	u4061
  2596     16C2  2EC4               	goto	u4060
  2597     16C3                     u4061:
  2598     16C3  2ECB               	goto	l3829
  2599     16C4                     u4060:
  2600     16C4                     l3827:
  2601                           
  2602                           ;main.c: 53:         {;main.c: 54:             dashboard(key);
  2603     16C4  084F               	movf	main@key,w
  2604     16C5  120A  158A  22A9  160A  118A  	fcall	_dashboard
  2605                           
  2606                           ;main.c: 55:         }
  2607     16CA  2EA5               	goto	l3817
  2608     16CB                     l3829:
  2609     16CB  0350               	decf	main@operation,w
  2610     16CC  1D03               	btfss	3,2
  2611     16CD  2ECF               	goto	u4071
  2612     16CE  2ED0               	goto	u4070
  2613     16CF                     u4071:
  2614     16CF  2ED8               	goto	l3833
  2615     16D0                     u4070:
  2616     16D0                     l3831:
  2617                           
  2618                           ;main.c: 57:         {;main.c: 59:             login_screen(&operation);
  2619     16D0  3050               	movlw	(low (main@operation| 0))& (0+255)
  2620     16D1  00FA               	movwf	login_screen@oper
  2621     16D2  120A  158A  24E4  160A  118A  	fcall	_login_screen
  2622                           
  2623                           ;main.c: 62:         }
  2624     16D7  2EA5               	goto	l3817
  2625     16D8                     l3833:
  2626     16D8  3002               	movlw	2
  2627     16D9  0650               	xorwf	main@operation,w
  2628     16DA  1D03               	btfss	3,2
  2629     16DB  2EDD               	goto	u4081
  2630     16DC  2EDE               	goto	u4080
  2631     16DD                     u4081:
  2632     16DD  2EA5               	goto	l3817
  2633     16DE                     u4080:
  2634     16DE                     l3835:
  2635                           
  2636                           ;main.c: 64:         {;main.c: 66:             menu_option=menu_screen();
  2637     16DE  160A  118A  2727  160A  118A  	fcall	_menu_screen
  2638     16E3  1283               	bcf	3,5	;RP0=0, select bank0
  2639     16E4  1303               	bcf	3,6	;RP1=0, select bank0
  2640     16E5  00DA               	movwf	_menu_option
  2641                           
  2642                           ;main.c: 68:             switch(menu_option)
  2643     16E6  2F10               	goto	l3853
  2644     16E7                     l3837:
  2645     16E7  120A  118A  228B  160A  118A  	fcall	_view_log
  2646     16EC  2EA5               	goto	l3817
  2647     16ED                     l3839:
  2648     16ED  160A  118A  21BD  160A  118A  	fcall	_clear_log
  2649     16F2  2EA5               	goto	l3817
  2650     16F3                     l3841:
  2651     16F3  120A  158A  23C3  160A  118A  	fcall	_download_log
  2652     16F8  2EA5               	goto	l3817
  2653     16F9                     l3843:
  2654     16F9  120A  118A  24D2  160A  118A  	fcall	_set_time
  2655     16FE  2EA5               	goto	l3817
  2656     16FF                     l3845:
  2657     16FF  30D2               	movlw	(low (_pass| 0))& (0+255)
  2658     1700  00FA               	movwf	change_password@main_pwd
  2659     1701  120A  158A  264A  160A  118A  	fcall	_change_password
  2660     1706  2EA5               	goto	l3817
  2661     1707                     l3847:
  2662                           
  2663                           ;main.c: 76:                        operation=0;
  2664     1707  01D0               	clrf	main@operation
  2665     1708                     l3849:
  2666                           
  2667                           ;main.c: 77:                        clcd_write(0x01, 0);
  2668     1708  01F0               	clrf	clcd_write@mode
  2669     1709  3001               	movlw	1
  2670     170A  160A  118A  236D  160A  118A  	fcall	_clcd_write
  2671                           
  2672                           ;main.c: 78:                        break;
  2673     170F  2EA5               	goto	l3817
  2674     1710                     l3853:
  2675     1710  085A               	movf	_menu_option,w
  2676                           
  2677                           ; Switch size 1, requested type "simple"
  2678                           ; Number of cases is 6, Range of values is 1 to 6
  2679                           ; switch strategies available:
  2680                           ; Name         Instructions Cycles
  2681                           ; simple_byte           19    10 (average)
  2682                           ; direct_byte           29    11 (fixed)
  2683                           ; jumptable            263     9 (fixed)
  2684                           ;	Chosen strategy is simple_byte
  2685     1711  3A01               	xorlw	1	; case 1
  2686     1712  1903               	skipnz
  2687     1713  2EE7               	goto	l3837
  2688     1714  3A03               	xorlw	3	; case 2
  2689     1715  1903               	skipnz
  2690     1716  2EED               	goto	l3839
  2691     1717  3A01               	xorlw	1	; case 3
  2692     1718  1903               	skipnz
  2693     1719  2EF3               	goto	l3841
  2694     171A  3A07               	xorlw	7	; case 4
  2695     171B  1903               	skipnz
  2696     171C  2EF9               	goto	l3843
  2697     171D  3A01               	xorlw	1	; case 5
  2698     171E  1903               	skipnz
  2699     171F  2EFF               	goto	l3845
  2700     1720  3A03               	xorlw	3	; case 6
  2701     1721  1903               	skipnz
  2702     1722  2F07               	goto	l3847
  2703     1723  2EA5               	goto	l3817
  2704     1724  120A  118A  2800   	ljmp	start
  2705     1727                     __end_of_main:
  2706                           
  2707                           	psect	text1
  2708     028B                     __ptext1:	
  2709 ;; *************** function _view_log *****************
  2710 ;; Defined at:
  2711 ;;		line 10 in file "view_log.c"
  2712 ;; Parameters:    Size  Location     Type
  2713 ;;		None
  2714 ;; Auto vars:     Size  Location     Type
  2715 ;;  i               2   34[BANK0 ] int 
  2716 ;;  line2          17   17[BANK0 ] unsigned char [17]
  2717 ;;  line1          17    0[BANK0 ] unsigned char [17]
  2718 ;;  eep_addr        2   39[BANK0 ] unsigned int 
  2719 ;;  log_index       1   38[BANK0 ] unsigned char 
  2720 ;;  total_log       1   37[BANK0 ] unsigned char 
  2721 ;;  key             1   36[BANK0 ] unsigned char 
  2722 ;; Return value:  Size  Location     Type
  2723 ;;                  1    wreg      void 
  2724 ;; Registers used:
  2725 ;;		wreg, fsr0l, fsr0h, status,2, status,0, pclath, btemp1, cstack
  2726 ;; Tracked objects:
  2727 ;;		On entry : 0/0
  2728 ;;		On exit  : 0/0
  2729 ;;		Unchanged: 0/0
  2730 ;; Data sizes:     COMMON   BANK0   BANK1   BANK3   BANK2
  2731 ;;      Params:         0       0       0       0       0
  2732 ;;      Locals:         0      41       0       0       0
  2733 ;;      Temps:          3       0       0       0       0
  2734 ;;      Totals:         3      41       0       0       0
  2735 ;;Total ram usage:       44 bytes
  2736 ;; Hardware stack levels used: 1
  2737 ;; Hardware stack levels required when called: 1
  2738 ;; This function calls:
  2739 ;;		___lwdiv
  2740 ;;		___wmul
  2741 ;;		_clcd_print
  2742 ;;		_clcd_write
  2743 ;;		_read_digital_keypad
  2744 ;;		_read_external_eeprom
  2745 ;; This function is called by:
  2746 ;;		_main
  2747 ;; This function uses a non-reentrant model
  2748 ;;
  2749                           
  2750     028B                     _view_log:	
  2751                           ;psect for function _view_log
  2752                           
  2753     028B                     l3341:	
  2754                           ;incstack = 0
  2755                           ; Regs used in _view_log: [wreg-fsr0h+status,2+status,0+pclath+btemp1+cstack]
  2756                           
  2757                           
  2758                           ;view_log.c: 12:     clcd_write(0x01, 0);
  2759     028B  01F0               	clrf	clcd_write@mode
  2760     028C  3001               	movlw	1
  2761     028D  160A  118A  236D  120A  118A  	fcall	_clcd_write
  2762     0292                     l3343:
  2763                           
  2764                           ;view_log.c: 13:     char line1[17];;view_log.c: 14:     char line2[17];;view_log.c: 16:
      +                               unsigned char key;;view_log.c: 17:     unsigned char log_index = 0;
  2765     0292  1283               	bcf	3,5	;RP0=0, select bank0
  2766     0293  1303               	bcf	3,6	;RP1=0, select bank0
  2767     0294  01C6               	clrf	view_log@log_index
  2768     0295                     l3345:
  2769                           
  2770                           ;view_log.c: 18:     unsigned char total_log;;view_log.c: 19:     unsigned int eep_addr;
      +                          ;view_log.c: 21:     total_log = address / 10;
  2771     0295  300A               	movlw	10
  2772     0296  00F0               	movwf	___lwdiv@divisor
  2773     0297  3000               	movlw	0
  2774     0298  00F1               	movwf	___lwdiv@divisor+1
  2775     0299  0852               	movf	_address+1,w
  2776     029A  00F3               	movwf	___lwdiv@dividend+1
  2777     029B  0851               	movf	_address,w
  2778     029C  00F2               	movwf	___lwdiv@dividend
  2779     029D  160A  118A  2412  120A  118A  	fcall	___lwdiv
  2780     02A2  0870               	movf	?___lwdiv,w
  2781     02A3  1283               	bcf	3,5	;RP0=0, select bank0
  2782     02A4  1303               	bcf	3,6	;RP1=0, select bank0
  2783     02A5  00C5               	movwf	view_log@total_log
  2784     02A6                     l3347:
  2785                           
  2786                           ;view_log.c: 23:     if (total_log == 0)
  2787     02A6  0845               	movf	view_log@total_log,w
  2788     02A7  1D03               	btfss	3,2
  2789     02A8  2AAA               	goto	u3571
  2790     02A9  2AAB               	goto	u3570
  2791     02AA                     u3571:
  2792     02AA  2ACB               	goto	l3357
  2793     02AB                     u3570:
  2794     02AB                     l3349:
  2795                           
  2796                           ;view_log.c: 24:     {;view_log.c: 25:         clcd_write(0x01, 0);
  2797     02AB  01F0               	clrf	clcd_write@mode
  2798     02AC  3001               	movlw	1
  2799     02AD  160A  118A  236D  120A  118A  	fcall	_clcd_write
  2800     02B2                     l3351:
  2801                           
  2802                           ;view_log.c: 26:         clcd_print("No Logs Found", (0x80 + 0));
  2803     02B2  300B               	movlw	low (STR_30| (0+32768))
  2804     02B3  00F4               	movwf	clcd_print@str
  2805     02B4  3089               	movlw	high (STR_30| (0+32768))
  2806     02B5  00F5               	movwf	clcd_print@str+1
  2807     02B6  3080               	movlw	128
  2808     02B7  00F6               	movwf	clcd_print@addr
  2809     02B8  160A  118A  22AB  120A  118A  	fcall	_clcd_print
  2810     02BD                     l3353:
  2811                           
  2812                           ;view_log.c: 27:         _delay((unsigned long)((1500)*(20000000/4000.0)));
  2813     02BD  3027               	movlw	39
  2814     02BE  00F9               	movwf	??_view_log+2
  2815     02BF  300D               	movlw	13
  2816     02C0  00F8               	movwf	??_view_log+1
  2817     02C1  3026               	movlw	38
  2818     02C2  00F7               	movwf	??_view_log
  2819     02C3                     u4097:
  2820     02C3  0BF7               	decfsz	??_view_log,f
  2821     02C4  2AC3               	goto	u4097
  2822     02C5  0BF8               	decfsz	??_view_log+1,f
  2823     02C6  2AC3               	goto	u4097
  2824     02C7  0BF9               	decfsz	??_view_log+2,f
  2825     02C8  2AC3               	goto	u4097
  2826     02C9  0000               	nop
  2827     02CA  2CD1               	goto	l402
  2828     02CB                     l3357:
  2829                           
  2830                           ;view_log.c: 32:     {;view_log.c: 34:         eep_addr = log_index * 10;
  2831     02CB  0846               	movf	view_log@log_index,w
  2832     02CC  00F7               	movwf	??_view_log
  2833     02CD  01F8               	clrf	??_view_log+1
  2834     02CE  0877               	movf	??_view_log,w
  2835     02CF  00F0               	movwf	___wmul@multiplier
  2836     02D0  0878               	movf	??_view_log+1,w
  2837     02D1  00F1               	movwf	___wmul@multiplier+1
  2838     02D2  300A               	movlw	10
  2839     02D3  00F2               	movwf	___wmul@multiplicand
  2840     02D4  3000               	movlw	0
  2841     02D5  00F3               	movwf	___wmul@multiplicand+1
  2842     02D6  160A  118A  21E1  120A  118A  	fcall	___wmul
  2843     02DB  0871               	movf	?___wmul+1,w
  2844     02DC  1283               	bcf	3,5	;RP0=0, select bank0
  2845     02DD  1303               	bcf	3,6	;RP1=0, select bank0
  2846     02DE  00C8               	movwf	view_log@eep_addr+1
  2847     02DF  0870               	movf	?___wmul,w
  2848     02E0  00C7               	movwf	view_log@eep_addr
  2849     02E1                     l3359:
  2850                           
  2851                           ;view_log.c: 36:         line1[0] = (log_index+1) + '0';
  2852     02E1  0846               	movf	view_log@log_index,w
  2853     02E2  3E31               	addlw	49
  2854     02E3  00A0               	movwf	view_log@line1
  2855     02E4                     l3361:
  2856                           
  2857                           ;view_log.c: 37:         line1[1] = ' ';
  2858     02E4  3020               	movlw	32
  2859     02E5  00A1               	movwf	view_log@line1+1
  2860     02E6                     l3363:
  2861                           
  2862                           ;view_log.c: 39:         line1[2] = read_external_eeprom(eep_addr++);
  2863     02E6  0847               	movf	view_log@eep_addr,w
  2864     02E7  160A  118A  2280  120A  118A  	fcall	_read_external_eeprom
  2865     02EC  1283               	bcf	3,5	;RP0=0, select bank0
  2866     02ED  1303               	bcf	3,6	;RP1=0, select bank0
  2867     02EE  00A2               	movwf	view_log@line1+2
  2868     02EF                     l3365:
  2869     02EF  3001               	movlw	1
  2870     02F0  07C7               	addwf	view_log@eep_addr,f
  2871     02F1  1803               	skipnc
  2872     02F2  0AC8               	incf	view_log@eep_addr+1,f
  2873     02F3  3000               	movlw	0
  2874     02F4  07C8               	addwf	view_log@eep_addr+1,f
  2875     02F5                     l3367:
  2876                           
  2877                           ;view_log.c: 40:         line1[3] = read_external_eeprom(eep_addr++);
  2878     02F5  0847               	movf	view_log@eep_addr,w
  2879     02F6  160A  118A  2280  120A  118A  	fcall	_read_external_eeprom
  2880     02FB  1283               	bcf	3,5	;RP0=0, select bank0
  2881     02FC  1303               	bcf	3,6	;RP1=0, select bank0
  2882     02FD  00A3               	movwf	view_log@line1+3
  2883     02FE                     l3369:
  2884     02FE  3001               	movlw	1
  2885     02FF  07C7               	addwf	view_log@eep_addr,f
  2886     0300  1803               	skipnc
  2887     0301  0AC8               	incf	view_log@eep_addr+1,f
  2888     0302  3000               	movlw	0
  2889     0303  07C8               	addwf	view_log@eep_addr+1,f
  2890     0304                     l3371:
  2891                           
  2892                           ;view_log.c: 41:         line1[4] = ':';
  2893     0304  303A               	movlw	58
  2894     0305  00A4               	movwf	view_log@line1+4
  2895     0306                     l3373:
  2896                           
  2897                           ;view_log.c: 42:         line1[5] = read_external_eeprom(eep_addr++);
  2898     0306  0847               	movf	view_log@eep_addr,w
  2899     0307  160A  118A  2280  120A  118A  	fcall	_read_external_eeprom
  2900     030C  1283               	bcf	3,5	;RP0=0, select bank0
  2901     030D  1303               	bcf	3,6	;RP1=0, select bank0
  2902     030E  00A5               	movwf	view_log@line1+5
  2903     030F                     l3375:
  2904     030F  3001               	movlw	1
  2905     0310  07C7               	addwf	view_log@eep_addr,f
  2906     0311  1803               	skipnc
  2907     0312  0AC8               	incf	view_log@eep_addr+1,f
  2908     0313  3000               	movlw	0
  2909     0314  07C8               	addwf	view_log@eep_addr+1,f
  2910     0315                     l3377:
  2911                           
  2912                           ;view_log.c: 43:         line1[6] = read_external_eeprom(eep_addr++);
  2913     0315  0847               	movf	view_log@eep_addr,w
  2914     0316  160A  118A  2280  120A  118A  	fcall	_read_external_eeprom
  2915     031B  1283               	bcf	3,5	;RP0=0, select bank0
  2916     031C  1303               	bcf	3,6	;RP1=0, select bank0
  2917     031D  00A6               	movwf	view_log@line1+6
  2918     031E                     l3379:
  2919     031E  3001               	movlw	1
  2920     031F  07C7               	addwf	view_log@eep_addr,f
  2921     0320  1803               	skipnc
  2922     0321  0AC8               	incf	view_log@eep_addr+1,f
  2923     0322  3000               	movlw	0
  2924     0323  07C8               	addwf	view_log@eep_addr+1,f
  2925     0324                     l3381:
  2926                           
  2927                           ;view_log.c: 44:         line1[7] = ':';
  2928     0324  303A               	movlw	58
  2929     0325  00A7               	movwf	view_log@line1+7
  2930     0326                     l3383:
  2931                           
  2932                           ;view_log.c: 45:         line1[8] = read_external_eeprom(eep_addr++);
  2933     0326  0847               	movf	view_log@eep_addr,w
  2934     0327  160A  118A  2280  120A  118A  	fcall	_read_external_eeprom
  2935     032C  1283               	bcf	3,5	;RP0=0, select bank0
  2936     032D  1303               	bcf	3,6	;RP1=0, select bank0
  2937     032E  00A8               	movwf	view_log@line1+8
  2938     032F                     l3385:
  2939     032F  3001               	movlw	1
  2940     0330  07C7               	addwf	view_log@eep_addr,f
  2941     0331  1803               	skipnc
  2942     0332  0AC8               	incf	view_log@eep_addr+1,f
  2943     0333  3000               	movlw	0
  2944     0334  07C8               	addwf	view_log@eep_addr+1,f
  2945     0335                     l3387:
  2946                           
  2947                           ;view_log.c: 46:         line1[9] = read_external_eeprom(eep_addr++);
  2948     0335  0847               	movf	view_log@eep_addr,w
  2949     0336  160A  118A  2280  120A  118A  	fcall	_read_external_eeprom
  2950     033B  1283               	bcf	3,5	;RP0=0, select bank0
  2951     033C  1303               	bcf	3,6	;RP1=0, select bank0
  2952     033D  00A9               	movwf	view_log@line1+9
  2953     033E                     l3389:
  2954     033E  3001               	movlw	1
  2955     033F  07C7               	addwf	view_log@eep_addr,f
  2956     0340  1803               	skipnc
  2957     0341  0AC8               	incf	view_log@eep_addr+1,f
  2958     0342  3000               	movlw	0
  2959     0343  07C8               	addwf	view_log@eep_addr+1,f
  2960     0344                     l3391:
  2961                           
  2962                           ;view_log.c: 47:         line1[10] = ' ';
  2963     0344  3020               	movlw	32
  2964     0345  00AA               	movwf	view_log@line1+10
  2965     0346                     l3393:
  2966                           
  2967                           ;view_log.c: 48:         line1[11] = read_external_eeprom(eep_addr++);
  2968     0346  0847               	movf	view_log@eep_addr,w
  2969     0347  160A  118A  2280  120A  118A  	fcall	_read_external_eeprom
  2970     034C  1283               	bcf	3,5	;RP0=0, select bank0
  2971     034D  1303               	bcf	3,6	;RP1=0, select bank0
  2972     034E  00AB               	movwf	view_log@line1+11
  2973     034F                     l3395:
  2974     034F  3001               	movlw	1
  2975     0350  07C7               	addwf	view_log@eep_addr,f
  2976     0351  1803               	skipnc
  2977     0352  0AC8               	incf	view_log@eep_addr+1,f
  2978     0353  3000               	movlw	0
  2979     0354  07C8               	addwf	view_log@eep_addr+1,f
  2980     0355                     l3397:
  2981                           
  2982                           ;view_log.c: 49:         line1[12] = read_external_eeprom(eep_addr++);
  2983     0355  0847               	movf	view_log@eep_addr,w
  2984     0356  160A  118A  2280  120A  118A  	fcall	_read_external_eeprom
  2985     035B  1283               	bcf	3,5	;RP0=0, select bank0
  2986     035C  1303               	bcf	3,6	;RP1=0, select bank0
  2987     035D  00AC               	movwf	view_log@line1+12
  2988     035E                     l3399:
  2989     035E  3001               	movlw	1
  2990     035F  07C7               	addwf	view_log@eep_addr,f
  2991     0360  1803               	skipnc
  2992     0361  0AC8               	incf	view_log@eep_addr+1,f
  2993     0362  3000               	movlw	0
  2994     0363  07C8               	addwf	view_log@eep_addr+1,f
  2995     0364                     l3401:
  2996                           
  2997                           ;view_log.c: 50:         line1[13] = ' ';
  2998     0364  3020               	movlw	32
  2999     0365  00AD               	movwf	view_log@line1+13
  3000     0366                     l3403:
  3001                           
  3002                           ;view_log.c: 51:         line1[14] = read_external_eeprom(eep_addr++);
  3003     0366  0847               	movf	view_log@eep_addr,w
  3004     0367  160A  118A  2280  120A  118A  	fcall	_read_external_eeprom
  3005     036C  1283               	bcf	3,5	;RP0=0, select bank0
  3006     036D  1303               	bcf	3,6	;RP1=0, select bank0
  3007     036E  00AE               	movwf	view_log@line1+14
  3008     036F                     l3405:
  3009     036F  3001               	movlw	1
  3010     0370  07C7               	addwf	view_log@eep_addr,f
  3011     0371  1803               	skipnc
  3012     0372  0AC8               	incf	view_log@eep_addr+1,f
  3013     0373  3000               	movlw	0
  3014     0374  07C8               	addwf	view_log@eep_addr+1,f
  3015     0375                     l3407:
  3016                           
  3017                           ;view_log.c: 52:         line1[15] = read_external_eeprom(eep_addr++);
  3018     0375  0847               	movf	view_log@eep_addr,w
  3019     0376  160A  118A  2280  120A  118A  	fcall	_read_external_eeprom
  3020     037B  1283               	bcf	3,5	;RP0=0, select bank0
  3021     037C  1303               	bcf	3,6	;RP1=0, select bank0
  3022     037D  00AF               	movwf	view_log@line1+15
  3023     037E                     l3409:
  3024     037E  3001               	movlw	1
  3025     037F  07C7               	addwf	view_log@eep_addr,f
  3026     0380  1803               	skipnc
  3027     0381  0AC8               	incf	view_log@eep_addr+1,f
  3028     0382  3000               	movlw	0
  3029     0383  07C8               	addwf	view_log@eep_addr+1,f
  3030     0384                     l3411:
  3031                           
  3032                           ;view_log.c: 53:         line1[16] = '\0';
  3033     0384  01B0               	clrf	view_log@line1+16
  3034     0385                     l3413:
  3035                           
  3036                           ;view_log.c: 56:         if (log_index + 1 < total_log)
  3037     0385  0846               	movf	view_log@log_index,w
  3038     0386  3E01               	addlw	1
  3039     0387  00F7               	movwf	??_view_log
  3040     0388  3000               	movlw	0
  3041     0389  1803               	skipnc
  3042     038A  3001               	movlw	1
  3043     038B  00F8               	movwf	??_view_log+1
  3044     038C  0878               	movf	??_view_log+1,w
  3045     038D  3A80               	xorlw	128
  3046     038E  00F9               	movwf	??_view_log+2
  3047     038F  3080               	movlw	128
  3048     0390  0279               	subwf	??_view_log+2,w
  3049     0391  1D03               	skipz
  3050     0392  2B95               	goto	u3585
  3051     0393  0845               	movf	view_log@total_log,w
  3052     0394  0277               	subwf	??_view_log,w
  3053     0395                     u3585:
  3054     0395  1803               	skipnc
  3055     0396  2B98               	goto	u3581
  3056     0397  2B99               	goto	u3580
  3057     0398                     u3581:
  3058     0398  2C58               	goto	l3471
  3059     0399                     u3580:
  3060     0399                     l3415:
  3061                           
  3062                           ;view_log.c: 57:         {;view_log.c: 58:             eep_addr = (log_index + 1) * 10;
  3063     0399  1283               	bcf	3,5	;RP0=0, select bank0
  3064     039A  1303               	bcf	3,6	;RP1=0, select bank0
  3065     039B  0846               	movf	view_log@log_index,w
  3066     039C  3E01               	addlw	1
  3067     039D  00F0               	movwf	___wmul@multiplier
  3068     039E  3000               	movlw	0
  3069     039F  1803               	skipnc
  3070     03A0  3001               	movlw	1
  3071     03A1  00F1               	movwf	___wmul@multiplier+1
  3072     03A2  300A               	movlw	10
  3073     03A3  00F2               	movwf	___wmul@multiplicand
  3074     03A4  3000               	movlw	0
  3075     03A5  00F3               	movwf	___wmul@multiplicand+1
  3076     03A6  160A  118A  21E1  120A  118A  	fcall	___wmul
  3077     03AB  0871               	movf	?___wmul+1,w
  3078     03AC  1283               	bcf	3,5	;RP0=0, select bank0
  3079     03AD  1303               	bcf	3,6	;RP1=0, select bank0
  3080     03AE  00C8               	movwf	view_log@eep_addr+1
  3081     03AF  0870               	movf	?___wmul,w
  3082     03B0  00C7               	movwf	view_log@eep_addr
  3083     03B1                     l3417:
  3084                           
  3085                           ;view_log.c: 60:             line2[0] = (log_index + 2) + '0';
  3086     03B1  0846               	movf	view_log@log_index,w
  3087     03B2  3E32               	addlw	50
  3088     03B3  00B1               	movwf	view_log@line2
  3089     03B4                     l3419:
  3090                           
  3091                           ;view_log.c: 61:             line2[1] = ' ';
  3092     03B4  3020               	movlw	32
  3093     03B5  00B2               	movwf	view_log@line2+1
  3094     03B6                     l3421:
  3095                           
  3096                           ;view_log.c: 62:             line2[2] = read_external_eeprom(eep_addr++);
  3097     03B6  0847               	movf	view_log@eep_addr,w
  3098     03B7  160A  118A  2280  120A  118A  	fcall	_read_external_eeprom
  3099     03BC  1283               	bcf	3,5	;RP0=0, select bank0
  3100     03BD  1303               	bcf	3,6	;RP1=0, select bank0
  3101     03BE  00B3               	movwf	view_log@line2+2
  3102     03BF                     l3423:
  3103     03BF  3001               	movlw	1
  3104     03C0  07C7               	addwf	view_log@eep_addr,f
  3105     03C1  1803               	skipnc
  3106     03C2  0AC8               	incf	view_log@eep_addr+1,f
  3107     03C3  3000               	movlw	0
  3108     03C4  07C8               	addwf	view_log@eep_addr+1,f
  3109     03C5                     l3425:
  3110                           
  3111                           ;view_log.c: 63:             line2[3] = read_external_eeprom(eep_addr++);
  3112     03C5  0847               	movf	view_log@eep_addr,w
  3113     03C6  160A  118A  2280  120A  118A  	fcall	_read_external_eeprom
  3114     03CB  1283               	bcf	3,5	;RP0=0, select bank0
  3115     03CC  1303               	bcf	3,6	;RP1=0, select bank0
  3116     03CD  00B4               	movwf	view_log@line2+3
  3117     03CE                     l3427:
  3118     03CE  3001               	movlw	1
  3119     03CF  07C7               	addwf	view_log@eep_addr,f
  3120     03D0  1803               	skipnc
  3121     03D1  0AC8               	incf	view_log@eep_addr+1,f
  3122     03D2  3000               	movlw	0
  3123     03D3  07C8               	addwf	view_log@eep_addr+1,f
  3124     03D4                     l3429:
  3125                           
  3126                           ;view_log.c: 64:             line2[4] = ':';
  3127     03D4  303A               	movlw	58
  3128     03D5  00B5               	movwf	view_log@line2+4
  3129     03D6                     l3431:
  3130                           
  3131                           ;view_log.c: 65:             line2[5] = read_external_eeprom(eep_addr++);
  3132     03D6  0847               	movf	view_log@eep_addr,w
  3133     03D7  160A  118A  2280  120A  118A  	fcall	_read_external_eeprom
  3134     03DC  1283               	bcf	3,5	;RP0=0, select bank0
  3135     03DD  1303               	bcf	3,6	;RP1=0, select bank0
  3136     03DE  00B6               	movwf	view_log@line2+5
  3137     03DF                     l3433:
  3138     03DF  3001               	movlw	1
  3139     03E0  07C7               	addwf	view_log@eep_addr,f
  3140     03E1  1803               	skipnc
  3141     03E2  0AC8               	incf	view_log@eep_addr+1,f
  3142     03E3  3000               	movlw	0
  3143     03E4  07C8               	addwf	view_log@eep_addr+1,f
  3144     03E5                     l3435:
  3145                           
  3146                           ;view_log.c: 66:             line2[6] = read_external_eeprom(eep_addr++);
  3147     03E5  0847               	movf	view_log@eep_addr,w
  3148     03E6  160A  118A  2280  120A  118A  	fcall	_read_external_eeprom
  3149     03EB  1283               	bcf	3,5	;RP0=0, select bank0
  3150     03EC  1303               	bcf	3,6	;RP1=0, select bank0
  3151     03ED  00B7               	movwf	view_log@line2+6
  3152     03EE                     l3437:
  3153     03EE  3001               	movlw	1
  3154     03EF  07C7               	addwf	view_log@eep_addr,f
  3155     03F0  1803               	skipnc
  3156     03F1  0AC8               	incf	view_log@eep_addr+1,f
  3157     03F2  3000               	movlw	0
  3158     03F3  07C8               	addwf	view_log@eep_addr+1,f
  3159     03F4                     l3439:
  3160                           
  3161                           ;view_log.c: 67:             line2[7] = ':';
  3162     03F4  303A               	movlw	58
  3163     03F5  00B8               	movwf	view_log@line2+7
  3164     03F6                     l3441:
  3165                           
  3166                           ;view_log.c: 68:             line2[8] = read_external_eeprom(eep_addr++);
  3167     03F6  0847               	movf	view_log@eep_addr,w
  3168     03F7  160A  118A  2280  120A  118A  	fcall	_read_external_eeprom
  3169     03FC  1283               	bcf	3,5	;RP0=0, select bank0
  3170     03FD  1303               	bcf	3,6	;RP1=0, select bank0
  3171     03FE  00B9               	movwf	view_log@line2+8
  3172     03FF                     l3443:
  3173     03FF  3001               	movlw	1
  3174     0400  07C7               	addwf	view_log@eep_addr,f
  3175     0401  1803               	skipnc
  3176     0402  0AC8               	incf	view_log@eep_addr+1,f
  3177     0403  3000               	movlw	0
  3178     0404  07C8               	addwf	view_log@eep_addr+1,f
  3179     0405                     l3445:
  3180                           
  3181                           ;view_log.c: 69:             line2[9] = read_external_eeprom(eep_addr++);
  3182     0405  0847               	movf	view_log@eep_addr,w
  3183     0406  160A  118A  2280  120A  118A  	fcall	_read_external_eeprom
  3184     040B  1283               	bcf	3,5	;RP0=0, select bank0
  3185     040C  1303               	bcf	3,6	;RP1=0, select bank0
  3186     040D  00BA               	movwf	view_log@line2+9
  3187     040E                     l3447:
  3188     040E  3001               	movlw	1
  3189     040F  07C7               	addwf	view_log@eep_addr,f
  3190     0410  1803               	skipnc
  3191     0411  0AC8               	incf	view_log@eep_addr+1,f
  3192     0412  3000               	movlw	0
  3193     0413  07C8               	addwf	view_log@eep_addr+1,f
  3194     0414                     l3449:
  3195                           
  3196                           ;view_log.c: 70:             line2[10] = ' ';
  3197     0414  3020               	movlw	32
  3198     0415  00BB               	movwf	view_log@line2+10
  3199     0416                     l3451:
  3200                           
  3201                           ;view_log.c: 71:             line2[11] = read_external_eeprom(eep_addr++);
  3202     0416  0847               	movf	view_log@eep_addr,w
  3203     0417  160A  118A  2280  120A  118A  	fcall	_read_external_eeprom
  3204     041C  1283               	bcf	3,5	;RP0=0, select bank0
  3205     041D  1303               	bcf	3,6	;RP1=0, select bank0
  3206     041E  00BC               	movwf	view_log@line2+11
  3207     041F                     l3453:
  3208     041F  3001               	movlw	1
  3209     0420  07C7               	addwf	view_log@eep_addr,f
  3210     0421  1803               	skipnc
  3211     0422  0AC8               	incf	view_log@eep_addr+1,f
  3212     0423  3000               	movlw	0
  3213     0424  07C8               	addwf	view_log@eep_addr+1,f
  3214     0425                     l3455:
  3215                           
  3216                           ;view_log.c: 72:             line2[12] = read_external_eeprom(eep_addr++);
  3217     0425  0847               	movf	view_log@eep_addr,w
  3218     0426  160A  118A  2280  120A  118A  	fcall	_read_external_eeprom
  3219     042B  1283               	bcf	3,5	;RP0=0, select bank0
  3220     042C  1303               	bcf	3,6	;RP1=0, select bank0
  3221     042D  00BD               	movwf	view_log@line2+12
  3222     042E                     l3457:
  3223     042E  3001               	movlw	1
  3224     042F  07C7               	addwf	view_log@eep_addr,f
  3225     0430  1803               	skipnc
  3226     0431  0AC8               	incf	view_log@eep_addr+1,f
  3227     0432  3000               	movlw	0
  3228     0433  07C8               	addwf	view_log@eep_addr+1,f
  3229     0434                     l3459:
  3230                           
  3231                           ;view_log.c: 73:             line2[13] = ' ';
  3232     0434  3020               	movlw	32
  3233     0435  00BE               	movwf	view_log@line2+13
  3234     0436                     l3461:
  3235                           
  3236                           ;view_log.c: 74:             line2[14] = read_external_eeprom(eep_addr++);
  3237     0436  0847               	movf	view_log@eep_addr,w
  3238     0437  160A  118A  2280  120A  118A  	fcall	_read_external_eeprom
  3239     043C  1283               	bcf	3,5	;RP0=0, select bank0
  3240     043D  1303               	bcf	3,6	;RP1=0, select bank0
  3241     043E  00BF               	movwf	view_log@line2+14
  3242     043F                     l3463:
  3243     043F  3001               	movlw	1
  3244     0440  07C7               	addwf	view_log@eep_addr,f
  3245     0441  1803               	skipnc
  3246     0442  0AC8               	incf	view_log@eep_addr+1,f
  3247     0443  3000               	movlw	0
  3248     0444  07C8               	addwf	view_log@eep_addr+1,f
  3249     0445                     l3465:
  3250                           
  3251                           ;view_log.c: 75:             line2[15] = read_external_eeprom(eep_addr++);
  3252     0445  0847               	movf	view_log@eep_addr,w
  3253     0446  160A  118A  2280  120A  118A  	fcall	_read_external_eeprom
  3254     044B  1283               	bcf	3,5	;RP0=0, select bank0
  3255     044C  1303               	bcf	3,6	;RP1=0, select bank0
  3256     044D  00C0               	movwf	view_log@line2+15
  3257     044E                     l3467:
  3258     044E  3001               	movlw	1
  3259     044F  07C7               	addwf	view_log@eep_addr,f
  3260     0450  1803               	skipnc
  3261     0451  0AC8               	incf	view_log@eep_addr+1,f
  3262     0452  3000               	movlw	0
  3263     0453  07C8               	addwf	view_log@eep_addr+1,f
  3264     0454                     l3469:
  3265                           
  3266                           ;view_log.c: 76:             line2[16] = '\0';
  3267     0454  1283               	bcf	3,5	;RP0=0, select bank0
  3268     0455  1303               	bcf	3,6	;RP1=0, select bank0
  3269     0456  01C1               	clrf	view_log@line2+16
  3270                           
  3271                           ;view_log.c: 77:         }
  3272     0457  2C78               	goto	l3485
  3273     0458                     l3471:
  3274                           
  3275                           ;view_log.c: 79:         {;view_log.c: 80:             for (int i = 0; i < 16; i++) line
      +                          2[i] = ' ';
  3276     0458  1283               	bcf	3,5	;RP0=0, select bank0
  3277     0459  1303               	bcf	3,6	;RP1=0, select bank0
  3278     045A  01C2               	clrf	view_log@i
  3279     045B  01C3               	clrf	view_log@i+1
  3280     045C                     l3477:
  3281     045C  1283               	bcf	3,5	;RP0=0, select bank0
  3282     045D  1303               	bcf	3,6	;RP1=0, select bank0
  3283     045E  0842               	movf	view_log@i,w
  3284     045F  3E31               	addlw	(low (view_log@line2| 0))& (0+255)
  3285     0460  0084               	movwf	4
  3286     0461  3020               	movlw	32
  3287     0462  1383               	bcf	3,7	;select IRP bank0
  3288     0463  0080               	movwf	0
  3289     0464                     l3479:
  3290     0464  3001               	movlw	1
  3291     0465  07C2               	addwf	view_log@i,f
  3292     0466  1803               	skipnc
  3293     0467  0AC3               	incf	view_log@i+1,f
  3294     0468  3000               	movlw	0
  3295     0469  07C3               	addwf	view_log@i+1,f
  3296     046A                     l3481:
  3297     046A  0843               	movf	view_log@i+1,w
  3298     046B  3A80               	xorlw	128
  3299     046C  00FF               	movwf	btemp1
  3300     046D  3080               	movlw	128
  3301     046E  027F               	subwf	btemp1,w
  3302     046F  1D03               	skipz
  3303     0470  2C73               	goto	u3595
  3304     0471  3010               	movlw	16
  3305     0472  0242               	subwf	view_log@i,w
  3306     0473                     u3595:
  3307     0473  1C03               	skipc
  3308     0474  2C76               	goto	u3591
  3309     0475  2C77               	goto	u3590
  3310     0476                     u3591:
  3311     0476  2C5C               	goto	l3477
  3312     0477                     u3590:
  3313     0477  2C54               	goto	l3469
  3314     0478                     l3485:
  3315                           
  3316                           ;view_log.c: 85:         clcd_print(line1, (0x80 + 0));
  3317     0478  3020               	movlw	(low (view_log@line1| 0))& (0+255)
  3318     0479  00F4               	movwf	clcd_print@str
  3319     047A  3000               	movlw	0
  3320     047B  00F5               	movwf	clcd_print@str+1
  3321     047C  3080               	movlw	128
  3322     047D  00F6               	movwf	clcd_print@addr
  3323     047E  160A  118A  22AB  120A  118A  	fcall	_clcd_print
  3324     0483                     l3487:
  3325                           
  3326                           ;view_log.c: 86:         clcd_print(line2, (0xC0 + 0));
  3327     0483  3031               	movlw	(low (view_log@line2| 0))& (0+255)
  3328     0484  00F4               	movwf	clcd_print@str
  3329     0485  3000               	movlw	0
  3330     0486  00F5               	movwf	clcd_print@str+1
  3331     0487  30C0               	movlw	192
  3332     0488  00F6               	movwf	clcd_print@addr
  3333     0489  160A  118A  22AB  120A  118A  	fcall	_clcd_print
  3334     048E                     l3489:
  3335                           
  3336                           ;view_log.c: 89:         key = read_digital_keypad(1);
  3337     048E  3001               	movlw	1
  3338     048F  120A  158A  21D2  120A  118A  	fcall	_read_digital_keypad
  3339     0494  1283               	bcf	3,5	;RP0=0, select bank0
  3340     0495  1303               	bcf	3,6	;RP1=0, select bank0
  3341     0496  00C4               	movwf	view_log@key
  3342     0497                     l3491:
  3343                           
  3344                           ;view_log.c: 91:         if (key == 0x3E && log_index > 0)
  3345     0497  303E               	movlw	62
  3346     0498  0644               	xorwf	view_log@key,w
  3347     0499  1D03               	btfss	3,2
  3348     049A  2C9C               	goto	u3601
  3349     049B  2C9D               	goto	u3600
  3350     049C                     u3601:
  3351     049C  2CA5               	goto	l3497
  3352     049D                     u3600:
  3353     049D                     l3493:
  3354     049D  0846               	movf	view_log@log_index,w
  3355     049E  1903               	btfsc	3,2
  3356     049F  2CA1               	goto	u3611
  3357     04A0  2CA2               	goto	u3610
  3358     04A1                     u3611:
  3359     04A1  2CA5               	goto	l3497
  3360     04A2                     u3610:
  3361     04A2                     l3495:
  3362                           
  3363                           ;view_log.c: 92:         {;view_log.c: 93:             log_index--;
  3364     04A2  3001               	movlw	1
  3365     04A3  02C6               	subwf	view_log@log_index,f
  3366                           
  3367                           ;view_log.c: 94:         }
  3368     04A4  2ACB               	goto	l3357
  3369     04A5                     l3497:
  3370     04A5  303D               	movlw	61
  3371     04A6  0644               	xorwf	view_log@key,w
  3372     04A7  1D03               	btfss	3,2
  3373     04A8  2CAA               	goto	u3621
  3374     04A9  2CAB               	goto	u3620
  3375     04AA                     u3621:
  3376     04AA  2CC2               	goto	l3503
  3377     04AB                     u3620:
  3378     04AB                     l3499:
  3379     04AB  0845               	movf	view_log@total_log,w
  3380     04AC  3EFF               	addlw	255
  3381     04AD  00F7               	movwf	??_view_log
  3382     04AE  30FF               	movlw	255
  3383     04AF  1803               	skipnc
  3384     04B0  3000               	movlw	0
  3385     04B1  00F8               	movwf	??_view_log+1
  3386     04B2  0878               	movf	??_view_log+1,w
  3387     04B3  3A80               	xorlw	128
  3388     04B4  3C80               	sublw	128
  3389     04B5  1D03               	skipz
  3390     04B6  2CB9               	goto	u3635
  3391     04B7  0877               	movf	??_view_log,w
  3392     04B8  0246               	subwf	view_log@log_index,w
  3393     04B9                     u3635:
  3394     04B9  1803               	skipnc
  3395     04BA  2CBC               	goto	u3631
  3396     04BB  2CBD               	goto	u3630
  3397     04BC                     u3631:
  3398     04BC  2CC2               	goto	l3503
  3399     04BD                     u3630:
  3400     04BD                     l3501:
  3401                           
  3402                           ;view_log.c: 96:         {;view_log.c: 97:             log_index++;
  3403     04BD  3001               	movlw	1
  3404     04BE  1283               	bcf	3,5	;RP0=0, select bank0
  3405     04BF  1303               	bcf	3,6	;RP1=0, select bank0
  3406     04C0  07C6               	addwf	view_log@log_index,f
  3407                           
  3408                           ;view_log.c: 98:         }
  3409     04C1  2ACB               	goto	l3357
  3410     04C2                     l3503:
  3411     04C2  302F               	movlw	47
  3412     04C3  1283               	bcf	3,5	;RP0=0, select bank0
  3413     04C4  1303               	bcf	3,6	;RP1=0, select bank0
  3414     04C5  0644               	xorwf	view_log@key,w
  3415     04C6  1D03               	btfss	3,2
  3416     04C7  2CC9               	goto	u3641
  3417     04C8  2CCA               	goto	u3640
  3418     04C9                     u3641:
  3419     04C9  2ACB               	goto	l3357
  3420     04CA                     u3640:
  3421     04CA                     l3505:
  3422                           
  3423                           ;view_log.c: 100:         {;view_log.c: 101:             clcd_write(0x01, 0);
  3424     04CA  01F0               	clrf	clcd_write@mode
  3425     04CB  3001               	movlw	1
  3426     04CC  160A  118A  236D  120A  118A  	fcall	_clcd_write
  3427     04D1                     l402:
  3428     04D1  0008               	return
  3429     04D2                     __end_of_view_log:
  3430                           
  3431                           	psect	text2
  3432     11E1                     __ptext2:	
  3433 ;; *************** function ___wmul *****************
  3434 ;; Defined at:
  3435 ;;		line 15 in file "C:\Program Files\Microchip\xc8\v3.10\pic\sources\c99\common\Umul16.c"
  3436 ;; Parameters:    Size  Location     Type
  3437 ;;  multiplier      2    0[COMMON] unsigned int 
  3438 ;;  multiplicand    2    2[COMMON] unsigned int 
  3439 ;; Auto vars:     Size  Location     Type
  3440 ;;  product         2    4[COMMON] unsigned int 
  3441 ;; Return value:  Size  Location     Type
  3442 ;;                  2    0[COMMON] unsigned int 
  3443 ;; Registers used:
  3444 ;;		wreg, status,2, status,0
  3445 ;; Tracked objects:
  3446 ;;		On entry : 0/0
  3447 ;;		On exit  : 0/0
  3448 ;;		Unchanged: 0/0
  3449 ;; Data sizes:     COMMON   BANK0   BANK1   BANK3   BANK2
  3450 ;;      Params:         4       0       0       0       0
  3451 ;;      Locals:         2       0       0       0       0
  3452 ;;      Temps:          0       0       0       0       0
  3453 ;;      Totals:         6       0       0       0       0
  3454 ;;Total ram usage:        6 bytes
  3455 ;; Hardware stack levels used: 1
  3456 ;; This function calls:
  3457 ;;		Nothing
  3458 ;; This function is called by:
  3459 ;;		_view_log
  3460 ;; This function uses a non-reentrant model
  3461 ;;
  3462                           
  3463     11E1                     ___wmul:	
  3464                           ;psect for function ___wmul
  3465                           
  3466     11E1                     l2755:	
  3467                           ;incstack = 0
  3468                           ; Regs used in ___wmul: [wreg+status,2+status,0]
  3469                           
  3470     11E1  01F4               	clrf	___wmul@product
  3471     11E2  01F5               	clrf	___wmul@product+1
  3472     11E3                     l2757:
  3473     11E3  1C70               	btfss	___wmul@multiplier,0
  3474     11E4  29E6               	goto	u2391
  3475     11E5  29E7               	goto	u2390
  3476     11E6                     u2391:
  3477     11E6  29ED               	goto	l649
  3478     11E7                     u2390:
  3479     11E7                     l2759:
  3480     11E7  0872               	movf	___wmul@multiplicand,w
  3481     11E8  07F4               	addwf	___wmul@product,f
  3482     11E9  1803               	skipnc
  3483     11EA  0AF5               	incf	___wmul@product+1,f
  3484     11EB  0873               	movf	___wmul@multiplicand+1,w
  3485     11EC  07F5               	addwf	___wmul@product+1,f
  3486     11ED                     l649:
  3487     11ED  3001               	movlw	1
  3488     11EE                     u2405:
  3489     11EE  1003               	clrc
  3490     11EF  0DF2               	rlf	___wmul@multiplicand,f
  3491     11F0  0DF3               	rlf	___wmul@multiplicand+1,f
  3492     11F1  3EFF               	addlw	-1
  3493     11F2  1D03               	skipz
  3494     11F3  29EE               	goto	u2405
  3495     11F4                     l2761:
  3496     11F4  3001               	movlw	1
  3497     11F5                     u2415:
  3498     11F5  1003               	clrc
  3499     11F6  0CF1               	rrf	___wmul@multiplier+1,f
  3500     11F7  0CF0               	rrf	___wmul@multiplier,f
  3501     11F8  3EFF               	addlw	-1
  3502     11F9  1D03               	skipz
  3503     11FA  29F5               	goto	u2415
  3504     11FB                     l2763:
  3505     11FB  0870               	movf	___wmul@multiplier,w
  3506     11FC  0471               	iorwf	___wmul@multiplier+1,w
  3507     11FD  1D03               	btfss	3,2
  3508     11FE  2A00               	goto	u2421
  3509     11FF  2A01               	goto	u2420
  3510     1200                     u2421:
  3511     1200  29E3               	goto	l2757
  3512     1201                     u2420:
  3513     1201                     l2765:
  3514     1201  0875               	movf	___wmul@product+1,w
  3515     1202  00F1               	movwf	?___wmul+1
  3516     1203  0874               	movf	___wmul@product,w
  3517     1204  00F0               	movwf	?___wmul
  3518     1205                     l651:
  3519     1205  0008               	return
  3520     1206                     __end_of___wmul:
  3521                           
  3522                           	psect	text3
  3523     04D2                     __ptext3:	
  3524 ;; *************** function _set_time *****************
  3525 ;; Defined at:
  3526 ;;		line 10 in file "set_time.c"
  3527 ;; Parameters:    Size  Location     Type
  3528 ;;		None
  3529 ;; Auto vars:     Size  Location     Type
  3530 ;;  clock_reg       3    7[BANK0 ] unsigned char [3]
  3531 ;;  blink           2   11[BANK0 ] unsigned short 
  3532 ;;  field           1   16[BANK0 ] unsigned char 
  3533 ;;  ss              1   15[BANK0 ] unsigned char 
  3534 ;;  mm              1   14[BANK0 ] unsigned char 
  3535 ;;  hh              1   13[BANK0 ] unsigned char 
  3536 ;;  key             1   10[BANK0 ] unsigned char 
  3537 ;; Return value:  Size  Location     Type
  3538 ;;                  1    wreg      void 
  3539 ;; Registers used:
  3540 ;;		wreg, fsr0l, fsr0h, status,2, status,0, pclath, btemp1, cstack
  3541 ;; Tracked objects:
  3542 ;;		On entry : 0/0
  3543 ;;		On exit  : 0/0
  3544 ;;		Unchanged: 0/0
  3545 ;; Data sizes:     COMMON   BANK0   BANK1   BANK3   BANK2
  3546 ;;      Params:         0       0       0       0       0
  3547 ;;      Locals:         0      10       0       0       0
  3548 ;;      Temps:          0       7       0       0       0
  3549 ;;      Totals:         0      17       0       0       0
  3550 ;;Total ram usage:       17 bytes
  3551 ;; Hardware stack levels used: 1
  3552 ;; Hardware stack levels required when called: 1
  3553 ;; This function calls:
  3554 ;;		___awdiv
  3555 ;;		___awmod
  3556 ;;		___bmul
  3557 ;;		_clcd_print
  3558 ;;		_clcd_putch
  3559 ;;		_clcd_write
  3560 ;;		_get_time
  3561 ;;		_read_digital_keypad
  3562 ;;		_write_ds1307
  3563 ;; This function is called by:
  3564 ;;		_main
  3565 ;; This function uses a non-reentrant model
  3566 ;;
  3567                           
  3568     04D2                     _set_time:	
  3569                           ;psect for function _set_time
  3570                           
  3571     04D2                     l3589:	
  3572                           ;incstack = 0
  3573                           ; Regs used in _set_time: [wreg-fsr0h+status,2+status,0+pclath+btemp1+cstack]
  3574                           
  3575                           
  3576                           ;set_time.c: 12:     unsigned char clock_reg[3];;set_time.c: 13:     unsigned char hh,mm
      +                          ,ss;;set_time.c: 14:     unsigned char field=0;
  3577     04D2  1283               	bcf	3,5	;RP0=0, select bank0
  3578     04D3  1303               	bcf	3,6	;RP1=0, select bank0
  3579     04D4  01B0               	clrf	set_time@field
  3580                           
  3581                           ;set_time.c: 15:     unsigned char key;;set_time.c: 16:     unsigned short blink=0;
  3582     04D5  01AB               	clrf	set_time@blink
  3583     04D6  01AC               	clrf	set_time@blink+1
  3584     04D7                     l3591:
  3585                           
  3586                           ;set_time.c: 18:     get_time(clock_reg);
  3587     04D7  3027               	movlw	(low (set_time@clock_reg| 0))& (0+255)
  3588     04D8  00F4               	movwf	get_time@clock_reg
  3589     04D9  160A  118A  217C  120A  118A  	fcall	_get_time
  3590     04DE                     l3593:
  3591                           
  3592                           ;set_time.c: 20:     hh=(((clock_reg[0] >> 4) * 10) + (clock_reg[0] & 0x0F));
  3593     04DE  300F               	movlw	15
  3594     04DF  1283               	bcf	3,5	;RP0=0, select bank0
  3595     04E0  1303               	bcf	3,6	;RP1=0, select bank0
  3596     04E1  0527               	andwf	set_time@clock_reg,w
  3597     04E2  00A0               	movwf	??_set_time
  3598     04E3  300A               	movlw	10
  3599     04E4  00F0               	movwf	___bmul@multiplicand
  3600     04E5  0827               	movf	set_time@clock_reg,w
  3601     04E6  00A1               	movwf	??_set_time+1
  3602     04E7  3004               	movlw	4
  3603     04E8                     u3675:
  3604     04E8  1003               	clrc
  3605     04E9  0CA1               	rrf	??_set_time+1,f
  3606     04EA  3EFF               	addlw	-1
  3607     04EB  1D03               	skipz
  3608     04EC  2CE8               	goto	u3675
  3609     04ED  0821               	movf	??_set_time+1,w
  3610     04EE  160A  118A  2119  120A  118A  	fcall	___bmul
  3611     04F3  1283               	bcf	3,5	;RP0=0, select bank0
  3612     04F4  1303               	bcf	3,6	;RP1=0, select bank0
  3613     04F5  0720               	addwf	??_set_time,w
  3614     04F6  00AD               	movwf	set_time@hh
  3615     04F7                     l3595:
  3616                           
  3617                           ;set_time.c: 21:     mm=(((clock_reg[1] >> 4) * 10) + (clock_reg[1] & 0x0F));
  3618     04F7  300F               	movlw	15
  3619     04F8  0528               	andwf	set_time@clock_reg+1,w
  3620     04F9  00A0               	movwf	??_set_time
  3621     04FA  300A               	movlw	10
  3622     04FB  00F0               	movwf	___bmul@multiplicand
  3623     04FC  0828               	movf	set_time@clock_reg+1,w
  3624     04FD  00A1               	movwf	??_set_time+1
  3625     04FE  3004               	movlw	4
  3626     04FF                     u3685:
  3627     04FF  1003               	clrc
  3628     0500  0CA1               	rrf	??_set_time+1,f
  3629     0501  3EFF               	addlw	-1
  3630     0502  1D03               	skipz
  3631     0503  2CFF               	goto	u3685
  3632     0504  0821               	movf	??_set_time+1,w
  3633     0505  160A  118A  2119  120A  118A  	fcall	___bmul
  3634     050A  1283               	bcf	3,5	;RP0=0, select bank0
  3635     050B  1303               	bcf	3,6	;RP1=0, select bank0
  3636     050C  0720               	addwf	??_set_time,w
  3637     050D  00AE               	movwf	set_time@mm
  3638     050E                     l3597:
  3639                           
  3640                           ;set_time.c: 22:     ss=(((clock_reg[2] >> 4) * 10) + (clock_reg[2] & 0x0F));
  3641     050E  300F               	movlw	15
  3642     050F  0529               	andwf	set_time@clock_reg+2,w
  3643     0510  00A0               	movwf	??_set_time
  3644     0511  300A               	movlw	10
  3645     0512  00F0               	movwf	___bmul@multiplicand
  3646     0513  0829               	movf	set_time@clock_reg+2,w
  3647     0514  00A1               	movwf	??_set_time+1
  3648     0515  3004               	movlw	4
  3649     0516                     u3695:
  3650     0516  1003               	clrc
  3651     0517  0CA1               	rrf	??_set_time+1,f
  3652     0518  3EFF               	addlw	-1
  3653     0519  1D03               	skipz
  3654     051A  2D16               	goto	u3695
  3655     051B  0821               	movf	??_set_time+1,w
  3656     051C  160A  118A  2119  120A  118A  	fcall	___bmul
  3657     0521  1283               	bcf	3,5	;RP0=0, select bank0
  3658     0522  1303               	bcf	3,6	;RP1=0, select bank0
  3659     0523  0720               	addwf	??_set_time,w
  3660     0524  00AF               	movwf	set_time@ss
  3661     0525                     l3599:
  3662                           
  3663                           ;set_time.c: 24:     clcd_write(0x01, 0);
  3664     0525  01F0               	clrf	clcd_write@mode
  3665     0526  3001               	movlw	1
  3666     0527  160A  118A  236D  120A  118A  	fcall	_clcd_write
  3667     052C                     l3601:
  3668                           
  3669                           ;set_time.c: 25:     clcd_print("HH:MM:SS", (0x80 + 4));
  3670     052C  3090               	movlw	low (STR_32| (0+32768))
  3671     052D  00F4               	movwf	clcd_print@str
  3672     052E  3089               	movlw	high (STR_32| (0+32768))
  3673     052F  00F5               	movwf	clcd_print@str+1
  3674     0530  3084               	movlw	132
  3675     0531  00F6               	movwf	clcd_print@addr
  3676     0532  160A  118A  22AB  120A  118A  	fcall	_clcd_print
  3677     0537                     l3603:
  3678                           
  3679                           ;set_time.c: 28:     {;set_time.c: 29:         key=read_digital_keypad(1);
  3680     0537  3001               	movlw	1
  3681     0538  120A  158A  21D2  120A  118A  	fcall	_read_digital_keypad
  3682     053D  1283               	bcf	3,5	;RP0=0, select bank0
  3683     053E  1303               	bcf	3,6	;RP1=0, select bank0
  3684     053F  00AA               	movwf	set_time@key
  3685     0540                     l3605:
  3686                           
  3687                           ;set_time.c: 31:         if (key == 0x3E)
  3688     0540  303E               	movlw	62
  3689     0541  062A               	xorwf	set_time@key,w
  3690     0542  1D03               	btfss	3,2
  3691     0543  2D45               	goto	u3701
  3692     0544  2D46               	goto	u3700
  3693     0545                     u3701:
  3694     0545  2D95               	goto	l3619
  3695     0546                     u3700:
  3696     0546                     l3607:
  3697                           
  3698                           ;set_time.c: 32:         {;set_time.c: 33:             if (field == 0 )
  3699     0546  0830               	movf	set_time@field,w
  3700     0547  1D03               	btfss	3,2
  3701     0548  2D4A               	goto	u3711
  3702     0549  2D4B               	goto	u3710
  3703     054A                     u3711:
  3704     054A  2D60               	goto	l3611
  3705     054B                     u3710:
  3706     054B                     l3609:
  3707                           
  3708                           ;set_time.c: 34:                 hh=(hh+1)%24;
  3709     054B  3018               	movlw	24
  3710     054C  00F0               	movwf	___awmod@divisor
  3711     054D  3000               	movlw	0
  3712     054E  00F1               	movwf	___awmod@divisor+1
  3713     054F  082D               	movf	set_time@hh,w
  3714     0550  3E01               	addlw	1
  3715     0551  00F2               	movwf	___awmod@dividend
  3716     0552  3000               	movlw	0
  3717     0553  1803               	skipnc
  3718     0554  3001               	movlw	1
  3719     0555  00F3               	movwf	___awmod@dividend+1
  3720     0556  160A  118A  24A6  120A  118A  	fcall	___awmod
  3721     055B  0870               	movf	?___awmod,w
  3722     055C  1283               	bcf	3,5	;RP0=0, select bank0
  3723     055D  1303               	bcf	3,6	;RP1=0, select bank0
  3724     055E  00AD               	movwf	set_time@hh
  3725     055F  2EA9               	goto	l3643
  3726     0560                     l3611:
  3727     0560  0330               	decf	set_time@field,w
  3728     0561  1D03               	btfss	3,2
  3729     0562  2D64               	goto	u3721
  3730     0563  2D65               	goto	u3720
  3731     0564                     u3721:
  3732     0564  2D7A               	goto	l3615
  3733     0565                     u3720:
  3734     0565                     l3613:
  3735                           
  3736                           ;set_time.c: 36:                 mm=(mm+1)%60;
  3737     0565  303C               	movlw	60
  3738     0566  00F0               	movwf	___awmod@divisor
  3739     0567  3000               	movlw	0
  3740     0568  00F1               	movwf	___awmod@divisor+1
  3741     0569  082E               	movf	set_time@mm,w
  3742     056A  3E01               	addlw	1
  3743     056B  00F2               	movwf	___awmod@dividend
  3744     056C  3000               	movlw	0
  3745     056D  1803               	skipnc
  3746     056E  3001               	movlw	1
  3747     056F  00F3               	movwf	___awmod@dividend+1
  3748     0570  160A  118A  24A6  120A  118A  	fcall	___awmod
  3749     0575  0870               	movf	?___awmod,w
  3750     0576  1283               	bcf	3,5	;RP0=0, select bank0
  3751     0577  1303               	bcf	3,6	;RP1=0, select bank0
  3752     0578  00AE               	movwf	set_time@mm
  3753     0579  2EA9               	goto	l3643
  3754     057A                     l3615:
  3755     057A  3002               	movlw	2
  3756     057B  0630               	xorwf	set_time@field,w
  3757     057C  1D03               	btfss	3,2
  3758     057D  2D7F               	goto	u3731
  3759     057E  2D80               	goto	u3730
  3760     057F                     u3731:
  3761     057F  2EA9               	goto	l3643
  3762     0580                     u3730:
  3763     0580                     l3617:
  3764                           
  3765                           ;set_time.c: 38:                 ss=(ss+1)%60;
  3766     0580  303C               	movlw	60
  3767     0581  00F0               	movwf	___awmod@divisor
  3768     0582  3000               	movlw	0
  3769     0583  00F1               	movwf	___awmod@divisor+1
  3770     0584  082F               	movf	set_time@ss,w
  3771     0585  3E01               	addlw	1
  3772     0586  00F2               	movwf	___awmod@dividend
  3773     0587  3000               	movlw	0
  3774     0588  1803               	skipnc
  3775     0589  3001               	movlw	1
  3776     058A  00F3               	movwf	___awmod@dividend+1
  3777     058B  160A  118A  24A6  120A  118A  	fcall	___awmod
  3778     0590  0870               	movf	?___awmod,w
  3779     0591  1283               	bcf	3,5	;RP0=0, select bank0
  3780     0592  1303               	bcf	3,6	;RP1=0, select bank0
  3781     0593  00AF               	movwf	set_time@ss
  3782     0594  2EA9               	goto	l3643
  3783     0595                     l3619:
  3784     0595  303D               	movlw	61
  3785     0596  062A               	xorwf	set_time@key,w
  3786     0597  1D03               	btfss	3,2
  3787     0598  2D9A               	goto	u3741
  3788     0599  2D9B               	goto	u3740
  3789     059A                     u3741:
  3790     059A  2DB0               	goto	l3623
  3791     059B                     u3740:
  3792     059B                     l3621:
  3793                           
  3794                           ;set_time.c: 41:         {;set_time.c: 42:             field = (field + 1) % 3;
  3795     059B  3003               	movlw	3
  3796     059C  00F0               	movwf	___awmod@divisor
  3797     059D  3000               	movlw	0
  3798     059E  00F1               	movwf	___awmod@divisor+1
  3799     059F  0830               	movf	set_time@field,w
  3800     05A0  3E01               	addlw	1
  3801     05A1  00F2               	movwf	___awmod@dividend
  3802     05A2  3000               	movlw	0
  3803     05A3  1803               	skipnc
  3804     05A4  3001               	movlw	1
  3805     05A5  00F3               	movwf	___awmod@dividend+1
  3806     05A6  160A  118A  24A6  120A  118A  	fcall	___awmod
  3807     05AB  0870               	movf	?___awmod,w
  3808     05AC  1283               	bcf	3,5	;RP0=0, select bank0
  3809     05AD  1303               	bcf	3,6	;RP1=0, select bank0
  3810     05AE  00B0               	movwf	set_time@field
  3811                           
  3812                           ;set_time.c: 43:         }
  3813     05AF  2EA9               	goto	l3643
  3814     05B0                     l3623:
  3815     05B0  3037               	movlw	55
  3816     05B1  062A               	xorwf	set_time@key,w
  3817     05B2  1D03               	btfss	3,2
  3818     05B3  2DB5               	goto	u3751
  3819     05B4  2DB6               	goto	u3750
  3820     05B5                     u3751:
  3821     05B5  2E82               	goto	l3633
  3822     05B6                     u3750:
  3823     05B6                     l3625:
  3824                           
  3825                           ;set_time.c: 45:         {;set_time.c: 46:             write_ds1307(0x02, (((hh / 10) <<
      +                           4) | (hh % 10)));
  3826     05B6  300A               	movlw	10
  3827     05B7  00F0               	movwf	___awmod@divisor
  3828     05B8  3000               	movlw	0
  3829     05B9  00F1               	movwf	___awmod@divisor+1
  3830     05BA  082D               	movf	set_time@hh,w
  3831     05BB  00A0               	movwf	??_set_time
  3832     05BC  01A1               	clrf	??_set_time+1
  3833     05BD  0820               	movf	??_set_time,w
  3834     05BE  00F2               	movwf	___awmod@dividend
  3835     05BF  0821               	movf	??_set_time+1,w
  3836     05C0  00F3               	movwf	___awmod@dividend+1
  3837     05C1  160A  118A  24A6  120A  118A  	fcall	___awmod
  3838     05C6  0870               	movf	?___awmod,w
  3839     05C7  1283               	bcf	3,5	;RP0=0, select bank0
  3840     05C8  1303               	bcf	3,6	;RP1=0, select bank0
  3841     05C9  00A2               	movwf	??_set_time+2
  3842     05CA  0871               	movf	?___awmod+1,w
  3843     05CB  00A3               	movwf	??_set_time+3
  3844     05CC  300A               	movlw	10
  3845     05CD  00F0               	movwf	___awdiv@divisor
  3846     05CE  3000               	movlw	0
  3847     05CF  00F1               	movwf	___awdiv@divisor+1
  3848     05D0  082D               	movf	set_time@hh,w
  3849     05D1  00A4               	movwf	??_set_time+4
  3850     05D2  01A5               	clrf	??_set_time+5
  3851     05D3  0824               	movf	??_set_time+4,w
  3852     05D4  00F2               	movwf	___awdiv@dividend
  3853     05D5  0825               	movf	??_set_time+5,w
  3854     05D6  00F3               	movwf	___awdiv@dividend+1
  3855     05D7  160A  118A  2560  120A  118A  	fcall	___awdiv
  3856     05DC  0870               	movf	?___awdiv,w
  3857     05DD  1283               	bcf	3,5	;RP0=0, select bank0
  3858     05DE  1303               	bcf	3,6	;RP1=0, select bank0
  3859     05DF  00A6               	movwf	??_set_time+6
  3860     05E0  3003               	movlw	3
  3861     05E1                     u3765:
  3862     05E1  1003               	clrc
  3863     05E2  0DA6               	rlf	??_set_time+6,f
  3864     05E3  3EFF               	addlw	-1
  3865     05E4  1D03               	skipz
  3866     05E5  2DE1               	goto	u3765
  3867     05E6  1003               	clrc
  3868     05E7  0D26               	rlf	??_set_time+6,w
  3869     05E8  0422               	iorwf	??_set_time+2,w
  3870     05E9  00F8               	movwf	write_ds1307@data
  3871     05EA  3002               	movlw	2
  3872     05EB  160A  118A  213F  120A  118A  	fcall	_write_ds1307
  3873                           
  3874                           ;set_time.c: 47:             write_ds1307(0x01, (((mm / 10) << 4) | (mm % 10)));
  3875     05F0  300A               	movlw	10
  3876     05F1  00F0               	movwf	___awmod@divisor
  3877     05F2  3000               	movlw	0
  3878     05F3  00F1               	movwf	___awmod@divisor+1
  3879     05F4  1283               	bcf	3,5	;RP0=0, select bank0
  3880     05F5  1303               	bcf	3,6	;RP1=0, select bank0
  3881     05F6  082E               	movf	set_time@mm,w
  3882     05F7  00A0               	movwf	??_set_time
  3883     05F8  01A1               	clrf	??_set_time+1
  3884     05F9  0820               	movf	??_set_time,w
  3885     05FA  00F2               	movwf	___awmod@dividend
  3886     05FB  0821               	movf	??_set_time+1,w
  3887     05FC  00F3               	movwf	___awmod@dividend+1
  3888     05FD  160A  118A  24A6  120A  118A  	fcall	___awmod
  3889     0602  0870               	movf	?___awmod,w
  3890     0603  1283               	bcf	3,5	;RP0=0, select bank0
  3891     0604  1303               	bcf	3,6	;RP1=0, select bank0
  3892     0605  00A2               	movwf	??_set_time+2
  3893     0606  0871               	movf	?___awmod+1,w
  3894     0607  00A3               	movwf	??_set_time+3
  3895     0608  300A               	movlw	10
  3896     0609  00F0               	movwf	___awdiv@divisor
  3897     060A  3000               	movlw	0
  3898     060B  00F1               	movwf	___awdiv@divisor+1
  3899     060C  082E               	movf	set_time@mm,w
  3900     060D  00A4               	movwf	??_set_time+4
  3901     060E  01A5               	clrf	??_set_time+5
  3902     060F  0824               	movf	??_set_time+4,w
  3903     0610  00F2               	movwf	___awdiv@dividend
  3904     0611  0825               	movf	??_set_time+5,w
  3905     0612  00F3               	movwf	___awdiv@dividend+1
  3906     0613  160A  118A  2560  120A  118A  	fcall	___awdiv
  3907     0618  0870               	movf	?___awdiv,w
  3908     0619  1283               	bcf	3,5	;RP0=0, select bank0
  3909     061A  1303               	bcf	3,6	;RP1=0, select bank0
  3910     061B  00A6               	movwf	??_set_time+6
  3911     061C  3003               	movlw	3
  3912     061D                     u3775:
  3913     061D  1003               	clrc
  3914     061E  0DA6               	rlf	??_set_time+6,f
  3915     061F  3EFF               	addlw	-1
  3916     0620  1D03               	skipz
  3917     0621  2E1D               	goto	u3775
  3918     0622  1003               	clrc
  3919     0623  0D26               	rlf	??_set_time+6,w
  3920     0624  0422               	iorwf	??_set_time+2,w
  3921     0625  00F8               	movwf	write_ds1307@data
  3922     0626  3001               	movlw	1
  3923     0627  160A  118A  213F  120A  118A  	fcall	_write_ds1307
  3924                           
  3925                           ;set_time.c: 48:             write_ds1307(0x00, (((ss / 10) << 4) | (ss % 10)));
  3926     062C  300A               	movlw	10
  3927     062D  00F0               	movwf	___awmod@divisor
  3928     062E  3000               	movlw	0
  3929     062F  00F1               	movwf	___awmod@divisor+1
  3930     0630  1283               	bcf	3,5	;RP0=0, select bank0
  3931     0631  1303               	bcf	3,6	;RP1=0, select bank0
  3932     0632  082F               	movf	set_time@ss,w
  3933     0633  00A0               	movwf	??_set_time
  3934     0634  01A1               	clrf	??_set_time+1
  3935     0635  0820               	movf	??_set_time,w
  3936     0636  00F2               	movwf	___awmod@dividend
  3937     0637  0821               	movf	??_set_time+1,w
  3938     0638  00F3               	movwf	___awmod@dividend+1
  3939     0639  160A  118A  24A6  120A  118A  	fcall	___awmod
  3940     063E  0870               	movf	?___awmod,w
  3941     063F  1283               	bcf	3,5	;RP0=0, select bank0
  3942     0640  1303               	bcf	3,6	;RP1=0, select bank0
  3943     0641  00A2               	movwf	??_set_time+2
  3944     0642  0871               	movf	?___awmod+1,w
  3945     0643  00A3               	movwf	??_set_time+3
  3946     0644  300A               	movlw	10
  3947     0645  00F0               	movwf	___awdiv@divisor
  3948     0646  3000               	movlw	0
  3949     0647  00F1               	movwf	___awdiv@divisor+1
  3950     0648  082F               	movf	set_time@ss,w
  3951     0649  00A4               	movwf	??_set_time+4
  3952     064A  01A5               	clrf	??_set_time+5
  3953     064B  0824               	movf	??_set_time+4,w
  3954     064C  00F2               	movwf	___awdiv@dividend
  3955     064D  0825               	movf	??_set_time+5,w
  3956     064E  00F3               	movwf	___awdiv@dividend+1
  3957     064F  160A  118A  2560  120A  118A  	fcall	___awdiv
  3958     0654  0870               	movf	?___awdiv,w
  3959     0655  1283               	bcf	3,5	;RP0=0, select bank0
  3960     0656  1303               	bcf	3,6	;RP1=0, select bank0
  3961     0657  00A6               	movwf	??_set_time+6
  3962     0658  3003               	movlw	3
  3963     0659                     u3785:
  3964     0659  1003               	clrc
  3965     065A  0DA6               	rlf	??_set_time+6,f
  3966     065B  3EFF               	addlw	-1
  3967     065C  1D03               	skipz
  3968     065D  2E59               	goto	u3785
  3969     065E  1003               	clrc
  3970     065F  0D26               	rlf	??_set_time+6,w
  3971     0660  0422               	iorwf	??_set_time+2,w
  3972     0661  00F8               	movwf	write_ds1307@data
  3973     0662  3000               	movlw	0
  3974     0663  160A  118A  213F  120A  118A  	fcall	_write_ds1307
  3975     0668                     l3627:
  3976                           
  3977                           ;set_time.c: 49:             clcd_print("saving.....", (0x80 + 0));
  3978     0668  305B               	movlw	low (STR_33| (0+32768))
  3979     0669  00F4               	movwf	clcd_print@str
  3980     066A  3089               	movlw	high (STR_33| (0+32768))
  3981     066B  00F5               	movwf	clcd_print@str+1
  3982     066C  3080               	movlw	128
  3983     066D  00F6               	movwf	clcd_print@addr
  3984     066E  160A  118A  22AB  120A  118A  	fcall	_clcd_print
  3985     0673                     l3629:
  3986                           
  3987                           ;set_time.c: 50:             _delay((unsigned long)((3000)*(20000000/4000.0)));
  3988     0673  304D               	movlw	77
  3989     0674  1283               	bcf	3,5	;RP0=0, select bank0
  3990     0675  1303               	bcf	3,6	;RP1=0, select bank0
  3991     0676  00A2               	movwf	??_set_time+2
  3992     0677  3019               	movlw	25
  3993     0678  00A1               	movwf	??_set_time+1
  3994     0679  304F               	movlw	79
  3995     067A  00A0               	movwf	??_set_time
  3996     067B                     u4107:
  3997     067B  0BA0               	decfsz	??_set_time,f
  3998     067C  2E7B               	goto	u4107
  3999     067D  0BA1               	decfsz	??_set_time+1,f
  4000     067E  2E7B               	goto	u4107
  4001     067F  0BA2               	decfsz	??_set_time+2,f
  4002     0680  2E7B               	goto	u4107
  4003                           
  4004                           ;set_time.c: 51:             break;
  4005     0681  2FC9               	goto	l3671
  4006     0682                     l3633:
  4007     0682  302F               	movlw	47
  4008     0683  062A               	xorwf	set_time@key,w
  4009     0684  1D03               	btfss	3,2
  4010     0685  2E87               	goto	u3791
  4011     0686  2E88               	goto	u3790
  4012     0687                     u3791:
  4013     0687  2EA9               	goto	l3643
  4014     0688                     u3790:
  4015     0688                     l3635:
  4016                           
  4017                           ;set_time.c: 54:         {;set_time.c: 55:             clcd_write(0x01, 0);
  4018     0688  01F0               	clrf	clcd_write@mode
  4019     0689  3001               	movlw	1
  4020     068A  160A  118A  236D  120A  118A  	fcall	_clcd_write
  4021     068F                     l3637:
  4022                           
  4023                           ;set_time.c: 56:             clcd_print("exiting....", (0x80 + 0));
  4024     068F  3067               	movlw	low (STR_34| (0+32768))
  4025     0690  00F4               	movwf	clcd_print@str
  4026     0691  3089               	movlw	high (STR_34| (0+32768))
  4027     0692  00F5               	movwf	clcd_print@str+1
  4028     0693  3080               	movlw	128
  4029     0694  00F6               	movwf	clcd_print@addr
  4030     0695  160A  118A  22AB  120A  118A  	fcall	_clcd_print
  4031     069A                     l3639:
  4032                           
  4033                           ;set_time.c: 57:              _delay((unsigned long)((3000)*(20000000/4000.0)));
  4034     069A  304D               	movlw	77
  4035     069B  1283               	bcf	3,5	;RP0=0, select bank0
  4036     069C  1303               	bcf	3,6	;RP1=0, select bank0
  4037     069D  00A2               	movwf	??_set_time+2
  4038     069E  3019               	movlw	25
  4039     069F  00A1               	movwf	??_set_time+1
  4040     06A0  304F               	movlw	79
  4041     06A1  00A0               	movwf	??_set_time
  4042     06A2                     u4117:
  4043     06A2  0BA0               	decfsz	??_set_time,f
  4044     06A3  2EA2               	goto	u4117
  4045     06A4  0BA1               	decfsz	??_set_time+1,f
  4046     06A5  2EA2               	goto	u4117
  4047     06A6  0BA2               	decfsz	??_set_time+2,f
  4048     06A7  2EA2               	goto	u4117
  4049     06A8  2FD0               	goto	l448
  4050     06A9                     l3643:
  4051                           
  4052                           ;set_time.c: 60:         blink++;
  4053     06A9  3001               	movlw	1
  4054     06AA  07AB               	addwf	set_time@blink,f
  4055     06AB  1803               	skipnc
  4056     06AC  0AAC               	incf	set_time@blink+1,f
  4057     06AD  3000               	movlw	0
  4058     06AE  07AC               	addwf	set_time@blink+1,f
  4059                           
  4060                           ;set_time.c: 61:         if (blink >= 10)
  4061     06AF  3000               	movlw	0
  4062     06B0  022C               	subwf	set_time@blink+1,w
  4063     06B1  300A               	movlw	10
  4064     06B2  1903               	skipnz
  4065     06B3  022B               	subwf	set_time@blink,w
  4066     06B4  1C03               	skipc
  4067     06B5  2EB7               	goto	u3801
  4068     06B6  2EB8               	goto	u3800
  4069     06B7                     u3801:
  4070     06B7  2EBA               	goto	l3647
  4071     06B8                     u3800:
  4072     06B8                     l3645:
  4073                           
  4074                           ;set_time.c: 62:          blink = 0;
  4075     06B8  01AB               	clrf	set_time@blink
  4076     06B9  01AC               	clrf	set_time@blink+1
  4077     06BA                     l3647:
  4078                           
  4079                           ;set_time.c: 65:         if (field == 0 && blink < 5)
  4080     06BA  0830               	movf	set_time@field,w
  4081     06BB  1D03               	btfss	3,2
  4082     06BC  2EBE               	goto	u3811
  4083     06BD  2EBF               	goto	u3810
  4084     06BE                     u3811:
  4085     06BE  2ED9               	goto	l3653
  4086     06BF                     u3810:
  4087     06BF                     l3649:
  4088     06BF  3000               	movlw	0
  4089     06C0  022C               	subwf	set_time@blink+1,w
  4090     06C1  3005               	movlw	5
  4091     06C2  1903               	skipnz
  4092     06C3  022B               	subwf	set_time@blink,w
  4093     06C4  1803               	skipnc
  4094     06C5  2EC7               	goto	u3821
  4095     06C6  2EC8               	goto	u3820
  4096     06C7                     u3821:
  4097     06C7  2ED9               	goto	l3653
  4098     06C8                     u3820:
  4099     06C8                     l3651:
  4100                           
  4101                           ;set_time.c: 66:         {;set_time.c: 67:             clcd_putch(' ', (0xC0 + 4));
  4102     06C8  30C4               	movlw	196
  4103     06C9  00F8               	movwf	clcd_putch@addr
  4104     06CA  3020               	movlw	32
  4105     06CB  160A  118A  20F6  120A  118A  	fcall	_clcd_putch
  4106                           
  4107                           ;set_time.c: 68:             clcd_putch(' ', (0xC0 + 5));
  4108     06D0  30C5               	movlw	197
  4109     06D1  00F8               	movwf	clcd_putch@addr
  4110     06D2  3020               	movlw	32
  4111     06D3  160A  118A  20F6  120A  118A  	fcall	_clcd_putch
  4112                           
  4113                           ;set_time.c: 69:         }
  4114     06D8  2F0D               	goto	l451
  4115     06D9                     l3653:
  4116                           
  4117                           ;set_time.c: 71:         {;set_time.c: 72:             clcd_putch((hh / 10) + '0', (0xC0
      +                           + 4));
  4118     06D9  30C4               	movlw	196
  4119     06DA  00F8               	movwf	clcd_putch@addr
  4120     06DB  300A               	movlw	10
  4121     06DC  00F0               	movwf	___awdiv@divisor
  4122     06DD  3000               	movlw	0
  4123     06DE  00F1               	movwf	___awdiv@divisor+1
  4124     06DF  082D               	movf	set_time@hh,w
  4125     06E0  00A0               	movwf	??_set_time
  4126     06E1  01A1               	clrf	??_set_time+1
  4127     06E2  0820               	movf	??_set_time,w
  4128     06E3  00F2               	movwf	___awdiv@dividend
  4129     06E4  0821               	movf	??_set_time+1,w
  4130     06E5  00F3               	movwf	___awdiv@dividend+1
  4131     06E6  160A  118A  2560  120A  118A  	fcall	___awdiv
  4132     06EB  0870               	movf	?___awdiv,w
  4133     06EC  3E30               	addlw	48
  4134     06ED  160A  118A  20F6  120A  118A  	fcall	_clcd_putch
  4135                           
  4136                           ;set_time.c: 73:             clcd_putch((hh % 10) + '0', (0xC0 + 5));
  4137     06F2  30C5               	movlw	197
  4138     06F3  00F8               	movwf	clcd_putch@addr
  4139     06F4  300A               	movlw	10
  4140     06F5  00F0               	movwf	___awmod@divisor
  4141     06F6  3000               	movlw	0
  4142     06F7  00F1               	movwf	___awmod@divisor+1
  4143     06F8  1283               	bcf	3,5	;RP0=0, select bank0
  4144     06F9  1303               	bcf	3,6	;RP1=0, select bank0
  4145     06FA  082D               	movf	set_time@hh,w
  4146     06FB  00A0               	movwf	??_set_time
  4147     06FC  01A1               	clrf	??_set_time+1
  4148     06FD  0820               	movf	??_set_time,w
  4149     06FE  00F2               	movwf	___awmod@dividend
  4150     06FF  0821               	movf	??_set_time+1,w
  4151     0700  00F3               	movwf	___awmod@dividend+1
  4152     0701  160A  118A  24A6  120A  118A  	fcall	___awmod
  4153     0706  0870               	movf	?___awmod,w
  4154     0707  3E30               	addlw	48
  4155     0708  160A  118A  20F6  120A  118A  	fcall	_clcd_putch
  4156     070D                     l451:	
  4157                           ;set_time.c: 74:         }
  4158                           
  4159                           
  4160                           ;set_time.c: 76:         clcd_putch(':', (0xC0 + 6));
  4161     070D  30C6               	movlw	198
  4162     070E  00F8               	movwf	clcd_putch@addr
  4163     070F  303A               	movlw	58
  4164     0710  160A  118A  20F6  120A  118A  	fcall	_clcd_putch
  4165     0715                     l3655:
  4166                           
  4167                           ;set_time.c: 79:         if (field == 1 && blink < 5)
  4168     0715  1283               	bcf	3,5	;RP0=0, select bank0
  4169     0716  1303               	bcf	3,6	;RP1=0, select bank0
  4170     0717  0330               	decf	set_time@field,w
  4171     0718  1D03               	btfss	3,2
  4172     0719  2F1B               	goto	u3831
  4173     071A  2F1C               	goto	u3830
  4174     071B                     u3831:
  4175     071B  2F36               	goto	l3661
  4176     071C                     u3830:
  4177     071C                     l3657:
  4178     071C  3000               	movlw	0
  4179     071D  022C               	subwf	set_time@blink+1,w
  4180     071E  3005               	movlw	5
  4181     071F  1903               	skipnz
  4182     0720  022B               	subwf	set_time@blink,w
  4183     0721  1803               	skipnc
  4184     0722  2F24               	goto	u3841
  4185     0723  2F25               	goto	u3840
  4186     0724                     u3841:
  4187     0724  2F36               	goto	l3661
  4188     0725                     u3840:
  4189     0725                     l3659:
  4190                           
  4191                           ;set_time.c: 80:         {;set_time.c: 81:             clcd_putch(' ', (0xC0 + 7));
  4192     0725  30C7               	movlw	199
  4193     0726  00F8               	movwf	clcd_putch@addr
  4194     0727  3020               	movlw	32
  4195     0728  160A  118A  20F6  120A  118A  	fcall	_clcd_putch
  4196                           
  4197                           ;set_time.c: 82:             clcd_putch(' ', (0xC0 + 8));
  4198     072D  30C8               	movlw	200
  4199     072E  00F8               	movwf	clcd_putch@addr
  4200     072F  3020               	movlw	32
  4201     0730  160A  118A  20F6  120A  118A  	fcall	_clcd_putch
  4202                           
  4203                           ;set_time.c: 83:         }
  4204     0735  2F6A               	goto	l453
  4205     0736                     l3661:
  4206                           
  4207                           ;set_time.c: 85:         {;set_time.c: 86:             clcd_putch((mm / 10) + '0', (0xC0
      +                           + 7));
  4208     0736  30C7               	movlw	199
  4209     0737  00F8               	movwf	clcd_putch@addr
  4210     0738  300A               	movlw	10
  4211     0739  00F0               	movwf	___awdiv@divisor
  4212     073A  3000               	movlw	0
  4213     073B  00F1               	movwf	___awdiv@divisor+1
  4214     073C  082E               	movf	set_time@mm,w
  4215     073D  00A0               	movwf	??_set_time
  4216     073E  01A1               	clrf	??_set_time+1
  4217     073F  0820               	movf	??_set_time,w
  4218     0740  00F2               	movwf	___awdiv@dividend
  4219     0741  0821               	movf	??_set_time+1,w
  4220     0742  00F3               	movwf	___awdiv@dividend+1
  4221     0743  160A  118A  2560  120A  118A  	fcall	___awdiv
  4222     0748  0870               	movf	?___awdiv,w
  4223     0749  3E30               	addlw	48
  4224     074A  160A  118A  20F6  120A  118A  	fcall	_clcd_putch
  4225                           
  4226                           ;set_time.c: 87:             clcd_putch((mm % 10) + '0', (0xC0 + 8));
  4227     074F  30C8               	movlw	200
  4228     0750  00F8               	movwf	clcd_putch@addr
  4229     0751  300A               	movlw	10
  4230     0752  00F0               	movwf	___awmod@divisor
  4231     0753  3000               	movlw	0
  4232     0754  00F1               	movwf	___awmod@divisor+1
  4233     0755  1283               	bcf	3,5	;RP0=0, select bank0
  4234     0756  1303               	bcf	3,6	;RP1=0, select bank0
  4235     0757  082E               	movf	set_time@mm,w
  4236     0758  00A0               	movwf	??_set_time
  4237     0759  01A1               	clrf	??_set_time+1
  4238     075A  0820               	movf	??_set_time,w
  4239     075B  00F2               	movwf	___awmod@dividend
  4240     075C  0821               	movf	??_set_time+1,w
  4241     075D  00F3               	movwf	___awmod@dividend+1
  4242     075E  160A  118A  24A6  120A  118A  	fcall	___awmod
  4243     0763  0870               	movf	?___awmod,w
  4244     0764  3E30               	addlw	48
  4245     0765  160A  118A  20F6  120A  118A  	fcall	_clcd_putch
  4246     076A                     l453:	
  4247                           ;set_time.c: 88:         }
  4248                           
  4249                           
  4250                           ;set_time.c: 90:         clcd_putch(':', (0xC0 + 9));
  4251     076A  30C9               	movlw	201
  4252     076B  00F8               	movwf	clcd_putch@addr
  4253     076C  303A               	movlw	58
  4254     076D  160A  118A  20F6  120A  118A  	fcall	_clcd_putch
  4255     0772                     l3663:
  4256                           
  4257                           ;set_time.c: 93:         if (field == 2 && blink < 5)
  4258     0772  3002               	movlw	2
  4259     0773  1283               	bcf	3,5	;RP0=0, select bank0
  4260     0774  1303               	bcf	3,6	;RP1=0, select bank0
  4261     0775  0630               	xorwf	set_time@field,w
  4262     0776  1D03               	btfss	3,2
  4263     0777  2F79               	goto	u3851
  4264     0778  2F7A               	goto	u3850
  4265     0779                     u3851:
  4266     0779  2F94               	goto	l3669
  4267     077A                     u3850:
  4268     077A                     l3665:
  4269     077A  3000               	movlw	0
  4270     077B  022C               	subwf	set_time@blink+1,w
  4271     077C  3005               	movlw	5
  4272     077D  1903               	skipnz
  4273     077E  022B               	subwf	set_time@blink,w
  4274     077F  1803               	skipnc
  4275     0780  2F82               	goto	u3861
  4276     0781  2F83               	goto	u3860
  4277     0782                     u3861:
  4278     0782  2F94               	goto	l3669
  4279     0783                     u3860:
  4280     0783                     l3667:
  4281                           
  4282                           ;set_time.c: 94:         {;set_time.c: 95:             clcd_putch(' ', (0xC0 + 10));
  4283     0783  30CA               	movlw	202
  4284     0784  00F8               	movwf	clcd_putch@addr
  4285     0785  3020               	movlw	32
  4286     0786  160A  118A  20F6  120A  118A  	fcall	_clcd_putch
  4287                           
  4288                           ;set_time.c: 96:             clcd_putch(' ', (0xC0 + 11));
  4289     078B  30CB               	movlw	203
  4290     078C  00F8               	movwf	clcd_putch@addr
  4291     078D  3020               	movlw	32
  4292     078E  160A  118A  20F6  120A  118A  	fcall	_clcd_putch
  4293                           
  4294                           ;set_time.c: 97:         }
  4295     0793  2D37               	goto	l3603
  4296     0794                     l3669:
  4297                           
  4298                           ;set_time.c: 99:         {;set_time.c: 100:             clcd_putch((ss / 10) + '0', (0xC
      +                          0 + 10));
  4299     0794  30CA               	movlw	202
  4300     0795  00F8               	movwf	clcd_putch@addr
  4301     0796  300A               	movlw	10
  4302     0797  00F0               	movwf	___awdiv@divisor
  4303     0798  3000               	movlw	0
  4304     0799  00F1               	movwf	___awdiv@divisor+1
  4305     079A  082F               	movf	set_time@ss,w
  4306     079B  00A0               	movwf	??_set_time
  4307     079C  01A1               	clrf	??_set_time+1
  4308     079D  0820               	movf	??_set_time,w
  4309     079E  00F2               	movwf	___awdiv@dividend
  4310     079F  0821               	movf	??_set_time+1,w
  4311     07A0  00F3               	movwf	___awdiv@dividend+1
  4312     07A1  160A  118A  2560  120A  118A  	fcall	___awdiv
  4313     07A6  0870               	movf	?___awdiv,w
  4314     07A7  3E30               	addlw	48
  4315     07A8  160A  118A  20F6  120A  118A  	fcall	_clcd_putch
  4316                           
  4317                           ;set_time.c: 101:             clcd_putch((ss % 10) + '0', (0xC0 + 11));
  4318     07AD  30CB               	movlw	203
  4319     07AE  00F8               	movwf	clcd_putch@addr
  4320     07AF  300A               	movlw	10
  4321     07B0  00F0               	movwf	___awmod@divisor
  4322     07B1  3000               	movlw	0
  4323     07B2  00F1               	movwf	___awmod@divisor+1
  4324     07B3  1283               	bcf	3,5	;RP0=0, select bank0
  4325     07B4  1303               	bcf	3,6	;RP1=0, select bank0
  4326     07B5  082F               	movf	set_time@ss,w
  4327     07B6  00A0               	movwf	??_set_time
  4328     07B7  01A1               	clrf	??_set_time+1
  4329     07B8  0820               	movf	??_set_time,w
  4330     07B9  00F2               	movwf	___awmod@dividend
  4331     07BA  0821               	movf	??_set_time+1,w
  4332     07BB  00F3               	movwf	___awmod@dividend+1
  4333     07BC  160A  118A  24A6  120A  118A  	fcall	___awmod
  4334     07C1  0870               	movf	?___awmod,w
  4335     07C2  3E30               	addlw	48
  4336     07C3  160A  118A  20F6  120A  118A  	fcall	_clcd_putch
  4337     07C8  2D37               	goto	l3603
  4338     07C9                     l3671:
  4339                           
  4340                           ;set_time.c: 107:         clcd_write(0x01, 0);
  4341     07C9  01F0               	clrf	clcd_write@mode
  4342     07CA  3001               	movlw	1
  4343     07CB  160A  118A  236D  120A  118A  	fcall	_clcd_write
  4344     07D0                     l448:
  4345     07D0  0008               	return
  4346     07D1                     __end_of_set_time:
  4347                           
  4348                           	psect	text4
  4349     1119                     __ptext4:	
  4350 ;; *************** function ___bmul *****************
  4351 ;; Defined at:
  4352 ;;		line 4 in file "C:\Program Files\Microchip\xc8\v3.10\pic\sources\c99\common\Umul8.c"
  4353 ;; Parameters:    Size  Location     Type
  4354 ;;  multiplier      1    wreg     unsigned char 
  4355 ;;  multiplicand    1    0[COMMON] unsigned char 
  4356 ;; Auto vars:     Size  Location     Type
  4357 ;;  multiplier      1    2[COMMON] unsigned char 
  4358 ;;  product         1    1[COMMON] unsigned char 
  4359 ;; Return value:  Size  Location     Type
  4360 ;;                  1    wreg      unsigned char 
  4361 ;; Registers used:
  4362 ;;		wreg, status,2, status,0
  4363 ;; Tracked objects:
  4364 ;;		On entry : 0/0
  4365 ;;		On exit  : 0/0
  4366 ;;		Unchanged: 0/0
  4367 ;; Data sizes:     COMMON   BANK0   BANK1   BANK3   BANK2
  4368 ;;      Params:         1       0       0       0       0
  4369 ;;      Locals:         2       0       0       0       0
  4370 ;;      Temps:          0       0       0       0       0
  4371 ;;      Totals:         3       0       0       0       0
  4372 ;;Total ram usage:        3 bytes
  4373 ;; Hardware stack levels used: 1
  4374 ;; This function calls:
  4375 ;;		Nothing
  4376 ;; This function is called by:
  4377 ;;		_set_time
  4378 ;; This function uses a non-reentrant model
  4379 ;;
  4380                           
  4381     1119                     ___bmul:	
  4382                           ;psect for function ___bmul
  4383                           
  4384                           
  4385                           ;incstack = 0
  4386                           ; Regs used in ___bmul: [wreg+status,2+status,0]
  4387                           ;___bmul@multiplier stored from wreg
  4388     1119  00F2               	movwf	___bmul@multiplier
  4389     111A                     l2769:
  4390     111A  01F1               	clrf	___bmul@product
  4391     111B                     l2771:
  4392     111B  1C72               	btfss	___bmul@multiplier,0
  4393     111C  291E               	goto	u2431
  4394     111D  291F               	goto	u2430
  4395     111E                     u2431:
  4396     111E  2921               	goto	l2775
  4397     111F                     u2430:
  4398     111F                     l2773:
  4399     111F  0870               	movf	___bmul@multiplicand,w
  4400     1120  07F1               	addwf	___bmul@product,f
  4401     1121                     l2775:
  4402     1121  1003               	clrc
  4403     1122  0DF0               	rlf	___bmul@multiplicand,f
  4404     1123                     l2777:
  4405     1123  1003               	clrc
  4406     1124  0CF2               	rrf	___bmul@multiplier,f
  4407     1125  0872               	movf	___bmul@multiplier,w
  4408     1126  1D03               	btfss	3,2
  4409     1127  2929               	goto	u2441
  4410     1128  292A               	goto	u2440
  4411     1129                     u2441:
  4412     1129  291B               	goto	l2771
  4413     112A                     u2440:
  4414     112A                     l2779:
  4415     112A  0871               	movf	___bmul@product,w
  4416     112B                     l675:
  4417     112B  0008               	return
  4418     112C                     __end_of___bmul:
  4419                           
  4420                           	psect	text5
  4421     14A6                     __ptext5:	
  4422 ;; *************** function ___awmod *****************
  4423 ;; Defined at:
  4424 ;;		line 5 in file "C:\Program Files\Microchip\xc8\v3.10\pic\sources\c99\common\awmod.c"
  4425 ;; Parameters:    Size  Location     Type
  4426 ;;  divisor         2    0[COMMON] int 
  4427 ;;  dividend        2    2[COMMON] int 
  4428 ;; Auto vars:     Size  Location     Type
  4429 ;;  sign            1    5[COMMON] unsigned char 
  4430 ;;  counter         1    4[COMMON] unsigned char 
  4431 ;; Return value:  Size  Location     Type
  4432 ;;                  2    0[COMMON] int 
  4433 ;; Registers used:
  4434 ;;		wreg, status,2, status,0
  4435 ;; Tracked objects:
  4436 ;;		On entry : 0/0
  4437 ;;		On exit  : 0/0
  4438 ;;		Unchanged: 0/0
  4439 ;; Data sizes:     COMMON   BANK0   BANK1   BANK3   BANK2
  4440 ;;      Params:         4       0       0       0       0
  4441 ;;      Locals:         2       0       0       0       0
  4442 ;;      Temps:          0       0       0       0       0
  4443 ;;      Totals:         6       0       0       0       0
  4444 ;;Total ram usage:        6 bytes
  4445 ;; Hardware stack levels used: 1
  4446 ;; This function calls:
  4447 ;;		Nothing
  4448 ;; This function is called by:
  4449 ;;		_set_time
  4450 ;; This function uses a non-reentrant model
  4451 ;;
  4452                           
  4453     14A6                     ___awmod:	
  4454                           ;psect for function ___awmod
  4455                           
  4456     14A6                     l2827:	
  4457                           ;incstack = 0
  4458                           ; Regs used in ___awmod: [wreg+status,2+status,0]
  4459                           
  4460     14A6  01F5               	clrf	___awmod@sign
  4461     14A7                     l2829:
  4462     14A7  1FF3               	btfss	___awmod@dividend+1,7
  4463     14A8  2CAA               	goto	u2551
  4464     14A9  2CAB               	goto	u2550
  4465     14AA                     u2551:
  4466     14AA  2CB2               	goto	l2835
  4467     14AB                     u2550:
  4468     14AB                     l2831:
  4469     14AB  09F2               	comf	___awmod@dividend,f
  4470     14AC  09F3               	comf	___awmod@dividend+1,f
  4471     14AD  0AF2               	incf	___awmod@dividend,f
  4472     14AE  1903               	skipnz
  4473     14AF  0AF3               	incf	___awmod@dividend+1,f
  4474     14B0                     l2833:
  4475     14B0  3001               	movlw	1
  4476     14B1  00F5               	movwf	___awmod@sign
  4477     14B2                     l2835:
  4478     14B2  1FF1               	btfss	___awmod@divisor+1,7
  4479     14B3  2CB5               	goto	u2561
  4480     14B4  2CB6               	goto	u2560
  4481     14B5                     u2561:
  4482     14B5  2CBB               	goto	l2839
  4483     14B6                     u2560:
  4484     14B6                     l2837:
  4485     14B6  09F0               	comf	___awmod@divisor,f
  4486     14B7  09F1               	comf	___awmod@divisor+1,f
  4487     14B8  0AF0               	incf	___awmod@divisor,f
  4488     14B9  1903               	skipnz
  4489     14BA  0AF1               	incf	___awmod@divisor+1,f
  4490     14BB                     l2839:
  4491     14BB  0870               	movf	___awmod@divisor,w
  4492     14BC  0471               	iorwf	___awmod@divisor+1,w
  4493     14BD  1903               	btfsc	3,2
  4494     14BE  2CC0               	goto	u2571
  4495     14BF  2CC1               	goto	u2570
  4496     14C0                     u2571:
  4497     14C0  2CEE               	goto	l2857
  4498     14C1                     u2570:
  4499     14C1                     l2841:
  4500     14C1  3001               	movlw	1
  4501     14C2  00F4               	movwf	___awmod@counter
  4502     14C3  2CCD               	goto	l2847
  4503     14C4                     l2843:
  4504     14C4  3001               	movlw	1
  4505     14C5                     u2585:
  4506     14C5  1003               	clrc
  4507     14C6  0DF0               	rlf	___awmod@divisor,f
  4508     14C7  0DF1               	rlf	___awmod@divisor+1,f
  4509     14C8  3EFF               	addlw	-1
  4510     14C9  1D03               	skipz
  4511     14CA  2CC5               	goto	u2585
  4512     14CB                     l2845:
  4513     14CB  3001               	movlw	1
  4514     14CC  07F4               	addwf	___awmod@counter,f
  4515     14CD                     l2847:
  4516     14CD  1FF1               	btfss	___awmod@divisor+1,7
  4517     14CE  2CD0               	goto	u2591
  4518     14CF  2CD1               	goto	u2590
  4519     14D0                     u2591:
  4520     14D0  2CC4               	goto	l2843
  4521     14D1                     u2590:
  4522     14D1                     l2849:
  4523     14D1  0871               	movf	___awmod@divisor+1,w
  4524     14D2  0273               	subwf	___awmod@dividend+1,w
  4525     14D3  1D03               	skipz
  4526     14D4  2CD7               	goto	u2605
  4527     14D5  0870               	movf	___awmod@divisor,w
  4528     14D6  0272               	subwf	___awmod@dividend,w
  4529     14D7                     u2605:
  4530     14D7  1C03               	skipc
  4531     14D8  2CDA               	goto	u2601
  4532     14D9  2CDB               	goto	u2600
  4533     14DA                     u2601:
  4534     14DA  2CE1               	goto	l2853
  4535     14DB                     u2600:
  4536     14DB                     l2851:
  4537     14DB  0870               	movf	___awmod@divisor,w
  4538     14DC  02F2               	subwf	___awmod@dividend,f
  4539     14DD  0871               	movf	___awmod@divisor+1,w
  4540     14DE  1C03               	skipc
  4541     14DF  03F3               	decf	___awmod@dividend+1,f
  4542     14E0  02F3               	subwf	___awmod@dividend+1,f
  4543     14E1                     l2853:
  4544     14E1  3001               	movlw	1
  4545     14E2                     u2615:
  4546     14E2  1003               	clrc
  4547     14E3  0CF1               	rrf	___awmod@divisor+1,f
  4548     14E4  0CF0               	rrf	___awmod@divisor,f
  4549     14E5  3EFF               	addlw	-1
  4550     14E6  1D03               	skipz
  4551     14E7  2CE2               	goto	u2615
  4552     14E8                     l2855:
  4553     14E8  3001               	movlw	1
  4554     14E9  02F4               	subwf	___awmod@counter,f
  4555     14EA  1D03               	btfss	3,2
  4556     14EB  2CED               	goto	u2621
  4557     14EC  2CEE               	goto	u2620
  4558     14ED                     u2621:
  4559     14ED  2CD1               	goto	l2849
  4560     14EE                     u2620:
  4561     14EE                     l2857:
  4562     14EE  0875               	movf	___awmod@sign,w
  4563     14EF  1903               	btfsc	3,2
  4564     14F0  2CF2               	goto	u2631
  4565     14F1  2CF3               	goto	u2630
  4566     14F2                     u2631:
  4567     14F2  2CF8               	goto	l2861
  4568     14F3                     u2630:
  4569     14F3                     l2859:
  4570     14F3  09F2               	comf	___awmod@dividend,f
  4571     14F4  09F3               	comf	___awmod@dividend+1,f
  4572     14F5  0AF2               	incf	___awmod@dividend,f
  4573     14F6  1903               	skipnz
  4574     14F7  0AF3               	incf	___awmod@dividend+1,f
  4575     14F8                     l2861:
  4576     14F8  0873               	movf	___awmod@dividend+1,w
  4577     14F9  00F1               	movwf	?___awmod+1
  4578     14FA  0872               	movf	___awmod@dividend,w
  4579     14FB  00F0               	movwf	?___awmod
  4580     14FC                     l815:
  4581     14FC  0008               	return
  4582     14FD                     __end_of___awmod:
  4583                           
  4584                           	psect	text6
  4585     1560                     __ptext6:	
  4586 ;; *************** function ___awdiv *****************
  4587 ;; Defined at:
  4588 ;;		line 5 in file "C:\Program Files\Microchip\xc8\v3.10\pic\sources\c99\common\awdiv.c"
  4589 ;; Parameters:    Size  Location     Type
  4590 ;;  divisor         2    0[COMMON] int 
  4591 ;;  dividend        2    2[COMMON] int 
  4592 ;; Auto vars:     Size  Location     Type
  4593 ;;  quotient        2    6[COMMON] int 
  4594 ;;  sign            1    5[COMMON] unsigned char 
  4595 ;;  counter         1    4[COMMON] unsigned char 
  4596 ;; Return value:  Size  Location     Type
  4597 ;;                  2    0[COMMON] int 
  4598 ;; Registers used:
  4599 ;;		wreg, status,2, status,0
  4600 ;; Tracked objects:
  4601 ;;		On entry : 0/0
  4602 ;;		On exit  : 0/0
  4603 ;;		Unchanged: 0/0
  4604 ;; Data sizes:     COMMON   BANK0   BANK1   BANK3   BANK2
  4605 ;;      Params:         4       0       0       0       0
  4606 ;;      Locals:         4       0       0       0       0
  4607 ;;      Temps:          0       0       0       0       0
  4608 ;;      Totals:         8       0       0       0       0
  4609 ;;Total ram usage:        8 bytes
  4610 ;; Hardware stack levels used: 1
  4611 ;; This function calls:
  4612 ;;		Nothing
  4613 ;; This function is called by:
  4614 ;;		_set_time
  4615 ;; This function uses a non-reentrant model
  4616 ;;
  4617                           
  4618     1560                     ___awdiv:	
  4619                           ;psect for function ___awdiv
  4620                           
  4621     1560                     l2783:	
  4622                           ;incstack = 0
  4623                           ; Regs used in ___awdiv: [wreg+status,2+status,0]
  4624                           
  4625     1560  01F5               	clrf	___awdiv@sign
  4626     1561                     l2785:
  4627     1561  1FF1               	btfss	___awdiv@divisor+1,7
  4628     1562  2D64               	goto	u2451
  4629     1563  2D65               	goto	u2450
  4630     1564                     u2451:
  4631     1564  2D6C               	goto	l2791
  4632     1565                     u2450:
  4633     1565                     l2787:
  4634     1565  09F0               	comf	___awdiv@divisor,f
  4635     1566  09F1               	comf	___awdiv@divisor+1,f
  4636     1567  0AF0               	incf	___awdiv@divisor,f
  4637     1568  1903               	skipnz
  4638     1569  0AF1               	incf	___awdiv@divisor+1,f
  4639     156A                     l2789:
  4640     156A  3001               	movlw	1
  4641     156B  00F5               	movwf	___awdiv@sign
  4642     156C                     l2791:
  4643     156C  1FF3               	btfss	___awdiv@dividend+1,7
  4644     156D  2D6F               	goto	u2461
  4645     156E  2D70               	goto	u2460
  4646     156F                     u2461:
  4647     156F  2D77               	goto	l2797
  4648     1570                     u2460:
  4649     1570                     l2793:
  4650     1570  09F2               	comf	___awdiv@dividend,f
  4651     1571  09F3               	comf	___awdiv@dividend+1,f
  4652     1572  0AF2               	incf	___awdiv@dividend,f
  4653     1573  1903               	skipnz
  4654     1574  0AF3               	incf	___awdiv@dividend+1,f
  4655     1575                     l2795:
  4656     1575  3001               	movlw	1
  4657     1576  06F5               	xorwf	___awdiv@sign,f
  4658     1577                     l2797:
  4659     1577  01F6               	clrf	___awdiv@quotient
  4660     1578  01F7               	clrf	___awdiv@quotient+1
  4661     1579                     l2799:
  4662     1579  0870               	movf	___awdiv@divisor,w
  4663     157A  0471               	iorwf	___awdiv@divisor+1,w
  4664     157B  1903               	btfsc	3,2
  4665     157C  2D7E               	goto	u2471
  4666     157D  2D7F               	goto	u2470
  4667     157E                     u2471:
  4668     157E  2DB4               	goto	l2819
  4669     157F                     u2470:
  4670     157F                     l2801:
  4671     157F  3001               	movlw	1
  4672     1580  00F4               	movwf	___awdiv@counter
  4673     1581  2D8B               	goto	l2807
  4674     1582                     l2803:
  4675     1582  3001               	movlw	1
  4676     1583                     u2485:
  4677     1583  1003               	clrc
  4678     1584  0DF0               	rlf	___awdiv@divisor,f
  4679     1585  0DF1               	rlf	___awdiv@divisor+1,f
  4680     1586  3EFF               	addlw	-1
  4681     1587  1D03               	skipz
  4682     1588  2D83               	goto	u2485
  4683     1589                     l2805:
  4684     1589  3001               	movlw	1
  4685     158A  07F4               	addwf	___awdiv@counter,f
  4686     158B                     l2807:
  4687     158B  1FF1               	btfss	___awdiv@divisor+1,7
  4688     158C  2D8E               	goto	u2491
  4689     158D  2D8F               	goto	u2490
  4690     158E                     u2491:
  4691     158E  2D82               	goto	l2803
  4692     158F                     u2490:
  4693     158F                     l2809:
  4694     158F  3001               	movlw	1
  4695     1590                     u2505:
  4696     1590  1003               	clrc
  4697     1591  0DF6               	rlf	___awdiv@quotient,f
  4698     1592  0DF7               	rlf	___awdiv@quotient+1,f
  4699     1593  3EFF               	addlw	-1
  4700     1594  1D03               	skipz
  4701     1595  2D90               	goto	u2505
  4702     1596  0871               	movf	___awdiv@divisor+1,w
  4703     1597  0273               	subwf	___awdiv@dividend+1,w
  4704     1598  1D03               	skipz
  4705     1599  2D9C               	goto	u2515
  4706     159A  0870               	movf	___awdiv@divisor,w
  4707     159B  0272               	subwf	___awdiv@dividend,w
  4708     159C                     u2515:
  4709     159C  1C03               	skipc
  4710     159D  2D9F               	goto	u2511
  4711     159E  2DA0               	goto	u2510
  4712     159F                     u2511:
  4713     159F  2DA7               	goto	l2815
  4714     15A0                     u2510:
  4715     15A0                     l2811:
  4716     15A0  0870               	movf	___awdiv@divisor,w
  4717     15A1  02F2               	subwf	___awdiv@dividend,f
  4718     15A2  0871               	movf	___awdiv@divisor+1,w
  4719     15A3  1C03               	skipc
  4720     15A4  03F3               	decf	___awdiv@dividend+1,f
  4721     15A5  02F3               	subwf	___awdiv@dividend+1,f
  4722     15A6                     l2813:
  4723     15A6  1476               	bsf	___awdiv@quotient,0
  4724     15A7                     l2815:
  4725     15A7  3001               	movlw	1
  4726     15A8                     u2525:
  4727     15A8  1003               	clrc
  4728     15A9  0CF1               	rrf	___awdiv@divisor+1,f
  4729     15AA  0CF0               	rrf	___awdiv@divisor,f
  4730     15AB  3EFF               	addlw	-1
  4731     15AC  1D03               	skipz
  4732     15AD  2DA8               	goto	u2525
  4733     15AE                     l2817:
  4734     15AE  3001               	movlw	1
  4735     15AF  02F4               	subwf	___awdiv@counter,f
  4736     15B0  1D03               	btfss	3,2
  4737     15B1  2DB3               	goto	u2531
  4738     15B2  2DB4               	goto	u2530
  4739     15B3                     u2531:
  4740     15B3  2D8F               	goto	l2809
  4741     15B4                     u2530:
  4742     15B4                     l2819:
  4743     15B4  0875               	movf	___awdiv@sign,w
  4744     15B5  1903               	btfsc	3,2
  4745     15B6  2DB8               	goto	u2541
  4746     15B7  2DB9               	goto	u2540
  4747     15B8                     u2541:
  4748     15B8  2DBE               	goto	l2823
  4749     15B9                     u2540:
  4750     15B9                     l2821:
  4751     15B9  09F6               	comf	___awdiv@quotient,f
  4752     15BA  09F7               	comf	___awdiv@quotient+1,f
  4753     15BB  0AF6               	incf	___awdiv@quotient,f
  4754     15BC  1903               	skipnz
  4755     15BD  0AF7               	incf	___awdiv@quotient+1,f
  4756     15BE                     l2823:
  4757     15BE  0877               	movf	___awdiv@quotient+1,w
  4758     15BF  00F1               	movwf	?___awdiv+1
  4759     15C0  0876               	movf	___awdiv@quotient,w
  4760     15C1  00F0               	movwf	?___awdiv
  4761     15C2                     l802:
  4762     15C2  0008               	return
  4763     15C3                     __end_of___awdiv:
  4764                           
  4765                           	psect	text7
  4766     1727                     __ptext7:	
  4767 ;; *************** function _menu_screen *****************
  4768 ;; Defined at:
  4769 ;;		line 26 in file "menu.c"
  4770 ;; Parameters:    Size  Location     Type
  4771 ;;		None
  4772 ;; Auto vars:     Size  Location     Type
  4773 ;;  start           1    3[BANK0 ] unsigned char 
  4774 ;;  index           1    2[BANK0 ] unsigned char 
  4775 ;;  key             1    1[BANK0 ] unsigned char 
  4776 ;;  prev_start      1    0[BANK0 ] unsigned char 
  4777 ;; Return value:  Size  Location     Type
  4778 ;;                  1    wreg      unsigned char 
  4779 ;; Registers used:
  4780 ;;		wreg, fsr0l, fsr0h, status,2, status,0, pclath, btemp1, cstack
  4781 ;; Tracked objects:
  4782 ;;		On entry : 0/0
  4783 ;;		On exit  : 0/0
  4784 ;;		Unchanged: 0/0
  4785 ;; Data sizes:     COMMON   BANK0   BANK1   BANK3   BANK2
  4786 ;;      Params:         0       0       0       0       0
  4787 ;;      Locals:         0       4       0       0       0
  4788 ;;      Temps:          3       0       0       0       0
  4789 ;;      Totals:         3       4       0       0       0
  4790 ;;Total ram usage:        7 bytes
  4791 ;; Hardware stack levels used: 1
  4792 ;; Hardware stack levels required when called: 1
  4793 ;; This function calls:
  4794 ;;		_clcd_print
  4795 ;;		_clcd_putch
  4796 ;;		_clcd_write
  4797 ;;		_read_digital_keypad
  4798 ;; This function is called by:
  4799 ;;		_main
  4800 ;; This function uses a non-reentrant model
  4801 ;;
  4802                           
  4803     1727                     _menu_screen:	
  4804                           ;psect for function _menu_screen
  4805                           
  4806     1727                     l3291:	
  4807                           ;incstack = 0
  4808                           ; Regs used in _menu_screen: [wreg-fsr0h+status,2+status,0+pclath+btemp1+cstack]
  4809                           
  4810                           
  4811                           ;menu.c: 28:     unsigned char key;;menu.c: 29:     unsigned char index = 0;
  4812     1727  1283               	bcf	3,5	;RP0=0, select bank0
  4813     1728  1303               	bcf	3,6	;RP1=0, select bank0
  4814     1729  01A2               	clrf	menu_screen@index
  4815                           
  4816                           ;menu.c: 30:     unsigned char start = 0;
  4817     172A  01A3               	clrf	menu_screen@start
  4818     172B                     l3293:
  4819                           
  4820                           ;menu.c: 31:     unsigned char prev_start=0xff;
  4821     172B  30FF               	movlw	255
  4822     172C  00A0               	movwf	menu_screen@prev_start
  4823     172D                     l3295:
  4824                           
  4825                           ;menu.c: 33:     clcd_write(0x01, 0);
  4826     172D  01F0               	clrf	clcd_write@mode
  4827     172E  3001               	movlw	1
  4828     172F  160A  118A  236D  160A  118A  	fcall	_clcd_write
  4829     1734                     l3297:
  4830                           
  4831                           ;menu.c: 36:     {;menu.c: 37:         if(start!=prev_start)
  4832     1734  1283               	bcf	3,5	;RP0=0, select bank0
  4833     1735  1303               	bcf	3,6	;RP1=0, select bank0
  4834     1736  0823               	movf	menu_screen@start,w
  4835     1737  0620               	xorwf	menu_screen@prev_start,w
  4836     1738  1903               	skipnz
  4837     1739  2F3B               	goto	u3481
  4838     173A  2F3C               	goto	u3480
  4839     173B                     u3481:
  4840     173B  2F81               	goto	l3307
  4841     173C                     u3480:
  4842     173C                     l3299:
  4843                           
  4844                           ;menu.c: 38:         {;menu.c: 39:         clcd_write(0x01, 0);
  4845     173C  01F0               	clrf	clcd_write@mode
  4846     173D  3001               	movlw	1
  4847     173E  160A  118A  236D  160A  118A  	fcall	_clcd_write
  4848                           
  4849                           ;menu.c: 41:         clcd_putch('*', (0x80 + 0));
  4850     1743  3080               	movlw	128
  4851     1744  00F8               	movwf	clcd_putch@addr
  4852     1745  302A               	movlw	42
  4853     1746  160A  118A  20F6  160A  118A  	fcall	_clcd_putch
  4854     174B                     l3301:
  4855                           
  4856                           ;menu.c: 42:         clcd_print(menu[start], (0x80 + 2));
  4857     174B  1283               	bcf	3,5	;RP0=0, select bank0
  4858     174C  1303               	bcf	3,6	;RP1=0, select bank0
  4859     174D  0823               	movf	menu_screen@start,w
  4860     174E  00FA               	movwf	??_menu_screen
  4861     174F  077A               	addwf	??_menu_screen,w
  4862     1750  3EB0               	addlw	(low (_menu| 0))& (0+255)
  4863     1751  0084               	movwf	4
  4864     1752  1383               	bcf	3,7	;select IRP bank1
  4865     1753  0800               	movf	0,w
  4866     1754  00F4               	movwf	clcd_print@str
  4867     1755  0A84               	incf	4,f
  4868     1756  0800               	movf	0,w
  4869     1757  0384               	decf	4,f
  4870     1758  00F5               	movwf	clcd_print@str+1
  4871     1759  3082               	movlw	130
  4872     175A  00F6               	movwf	clcd_print@addr
  4873     175B  160A  118A  22AB  160A  118A  	fcall	_clcd_print
  4874     1760                     l3303:
  4875                           
  4876                           ;menu.c: 44:         clcd_putch(' ', (0xC0 + 0));
  4877     1760  30C0               	movlw	192
  4878     1761  00F8               	movwf	clcd_putch@addr
  4879     1762  3020               	movlw	32
  4880     1763  160A  118A  20F6  160A  118A  	fcall	_clcd_putch
  4881                           
  4882                           ;menu.c: 45:         clcd_print(menu[start + 1], (0xC0 + 2));
  4883     1768  1283               	bcf	3,5	;RP0=0, select bank0
  4884     1769  1303               	bcf	3,6	;RP1=0, select bank0
  4885     176A  0823               	movf	menu_screen@start,w
  4886     176B  00FA               	movwf	??_menu_screen
  4887     176C  077A               	addwf	??_menu_screen,w
  4888     176D  3EB2               	addlw	(low ((_menu| 0+2)))& (0+255)
  4889     176E  0084               	movwf	4
  4890     176F  1383               	bcf	3,7	;select IRP bank1
  4891     1770  0800               	movf	0,w
  4892     1771  00F4               	movwf	clcd_print@str
  4893     1772  0A84               	incf	4,f
  4894     1773  0800               	movf	0,w
  4895     1774  0384               	decf	4,f
  4896     1775  00F5               	movwf	clcd_print@str+1
  4897     1776  30C2               	movlw	194
  4898     1777  00F6               	movwf	clcd_print@addr
  4899     1778  160A  118A  22AB  160A  118A  	fcall	_clcd_print
  4900     177D                     l3305:
  4901                           
  4902                           ;menu.c: 46:         prev_start=start;
  4903     177D  1283               	bcf	3,5	;RP0=0, select bank0
  4904     177E  1303               	bcf	3,6	;RP1=0, select bank0
  4905     177F  0823               	movf	menu_screen@start,w
  4906     1780  00A0               	movwf	menu_screen@prev_start
  4907     1781                     l3307:
  4908                           
  4909                           ;menu.c: 50:         if (index == start)
  4910     1781  0822               	movf	menu_screen@index,w
  4911     1782  0623               	xorwf	menu_screen@start,w
  4912     1783  1D03               	skipz
  4913     1784  2F86               	goto	u3491
  4914     1785  2F87               	goto	u3490
  4915     1786                     u3491:
  4916     1786  2F98               	goto	l3311
  4917     1787                     u3490:
  4918     1787                     l3309:
  4919                           
  4920                           ;menu.c: 51:         {;menu.c: 52:             clcd_putch('*', (0x80 + 0));
  4921     1787  3080               	movlw	128
  4922     1788  00F8               	movwf	clcd_putch@addr
  4923     1789  302A               	movlw	42
  4924     178A  160A  118A  20F6  160A  118A  	fcall	_clcd_putch
  4925                           
  4926                           ;menu.c: 53:             clcd_putch(' ', (0xC0 + 0));
  4927     178F  30C0               	movlw	192
  4928     1790  00F8               	movwf	clcd_putch@addr
  4929     1791  3020               	movlw	32
  4930     1792  160A  118A  20F6  160A  118A  	fcall	_clcd_putch
  4931                           
  4932                           ;menu.c: 54:         }
  4933     1797  2FA8               	goto	l374
  4934     1798                     l3311:
  4935                           
  4936                           ;menu.c: 56:         {;menu.c: 57:             clcd_putch(' ', (0x80 + 0));
  4937     1798  3080               	movlw	128
  4938     1799  00F8               	movwf	clcd_putch@addr
  4939     179A  3020               	movlw	32
  4940     179B  160A  118A  20F6  160A  118A  	fcall	_clcd_putch
  4941                           
  4942                           ;menu.c: 58:             clcd_putch('*', (0xC0 + 0));
  4943     17A0  30C0               	movlw	192
  4944     17A1  00F8               	movwf	clcd_putch@addr
  4945     17A2  302A               	movlw	42
  4946     17A3  160A  118A  20F6  160A  118A  	fcall	_clcd_putch
  4947     17A8                     l374:	
  4948                           ;menu.c: 59:         }
  4949                           
  4950                           
  4951                           ;menu.c: 61:         key = read_digital_keypad(1);
  4952     17A8  3001               	movlw	1
  4953     17A9  120A  158A  21D2  160A  118A  	fcall	_read_digital_keypad
  4954     17AE  1283               	bcf	3,5	;RP0=0, select bank0
  4955     17AF  1303               	bcf	3,6	;RP1=0, select bank0
  4956     17B0  00A1               	movwf	menu_screen@key
  4957     17B1                     l3313:
  4958                           
  4959                           ;menu.c: 64:         if (key == 0x3E)
  4960     17B1  303E               	movlw	62
  4961     17B2  0621               	xorwf	menu_screen@key,w
  4962     17B3  1D03               	btfss	3,2
  4963     17B4  2FB6               	goto	u3501
  4964     17B5  2FB7               	goto	u3500
  4965     17B6                     u3501:
  4966     17B6  2FC7               	goto	l3323
  4967     17B7                     u3500:
  4968     17B7                     l3315:
  4969                           
  4970                           ;menu.c: 65:         {;menu.c: 66:             if (index > 0)
  4971     17B7  0822               	movf	menu_screen@index,w
  4972     17B8  1903               	btfsc	3,2
  4973     17B9  2FBB               	goto	u3511
  4974     17BA  2FBC               	goto	u3510
  4975     17BB                     u3511:
  4976     17BB  2F34               	goto	l3297
  4977     17BC                     u3510:
  4978     17BC                     l3317:
  4979                           
  4980                           ;menu.c: 67:             {;menu.c: 68:                 index--;
  4981     17BC  3001               	movlw	1
  4982     17BD  02A2               	subwf	menu_screen@index,f
  4983     17BE                     l3319:
  4984                           
  4985                           ;menu.c: 69:                 if (index < start)
  4986     17BE  0823               	movf	menu_screen@start,w
  4987     17BF  0222               	subwf	menu_screen@index,w
  4988     17C0  1803               	skipnc
  4989     17C1  2FC3               	goto	u3521
  4990     17C2  2FC4               	goto	u3520
  4991     17C3                     u3521:
  4992     17C3  2F34               	goto	l3297
  4993     17C4                     u3520:
  4994     17C4                     l3321:
  4995                           
  4996                           ;menu.c: 70:                     start--;
  4997     17C4  3001               	movlw	1
  4998     17C5  02A3               	subwf	menu_screen@start,f
  4999     17C6  2F34               	goto	l3297
  5000     17C7                     l3323:
  5001     17C7  303D               	movlw	61
  5002     17C8  0621               	xorwf	menu_screen@key,w
  5003     17C9  1D03               	btfss	3,2
  5004     17CA  2FCC               	goto	u3531
  5005     17CB  2FCD               	goto	u3530
  5006     17CC                     u3531:
  5007     17CC  2FEE               	goto	l3333
  5008     17CD                     u3530:
  5009     17CD                     l3325:
  5010                           
  5011                           ;menu.c: 76:         {;menu.c: 77:             if (index < 6 - 1)
  5012     17CD  3005               	movlw	5
  5013     17CE  0222               	subwf	menu_screen@index,w
  5014     17CF  1803               	skipnc
  5015     17D0  2FD2               	goto	u3541
  5016     17D1  2FD3               	goto	u3540
  5017     17D2                     u3541:
  5018     17D2  2F34               	goto	l3297
  5019     17D3                     u3540:
  5020     17D3                     l3327:
  5021                           
  5022                           ;menu.c: 78:             {;menu.c: 79:                 index++;
  5023     17D3  3001               	movlw	1
  5024     17D4  07A2               	addwf	menu_screen@index,f
  5025     17D5                     l3329:
  5026                           
  5027                           ;menu.c: 80:                 if (index > start + 1)
  5028     17D5  0823               	movf	menu_screen@start,w
  5029     17D6  3E01               	addlw	1
  5030     17D7  00FA               	movwf	??_menu_screen
  5031     17D8  3000               	movlw	0
  5032     17D9  1803               	skipnc
  5033     17DA  3001               	movlw	1
  5034     17DB  00FB               	movwf	??_menu_screen+1
  5035     17DC  087B               	movf	??_menu_screen+1,w
  5036     17DD  3A80               	xorlw	128
  5037     17DE  00FC               	movwf	??_menu_screen+2
  5038     17DF  3080               	movlw	128
  5039     17E0  027C               	subwf	??_menu_screen+2,w
  5040     17E1  1D03               	skipz
  5041     17E2  2FE5               	goto	u3555
  5042     17E3  0822               	movf	menu_screen@index,w
  5043     17E4  027A               	subwf	??_menu_screen,w
  5044     17E5                     u3555:
  5045     17E5  1803               	skipnc
  5046     17E6  2FE8               	goto	u3551
  5047     17E7  2FE9               	goto	u3550
  5048     17E8                     u3551:
  5049     17E8  2F34               	goto	l3297
  5050     17E9                     u3550:
  5051     17E9                     l3331:
  5052                           
  5053                           ;menu.c: 81:                     start++;
  5054     17E9  3001               	movlw	1
  5055     17EA  1283               	bcf	3,5	;RP0=0, select bank0
  5056     17EB  1303               	bcf	3,6	;RP1=0, select bank0
  5057     17EC  07A3               	addwf	menu_screen@start,f
  5058     17ED  2F34               	goto	l3297
  5059     17EE                     l3333:
  5060     17EE  3037               	movlw	55
  5061     17EF  0621               	xorwf	menu_screen@key,w
  5062     17F0  1D03               	btfss	3,2
  5063     17F1  2FF3               	goto	u3561
  5064     17F2  2FF4               	goto	u3560
  5065     17F3                     u3561:
  5066     17F3  2F34               	goto	l3297
  5067     17F4                     u3560:
  5068     17F4                     l3335:
  5069                           
  5070                           ;menu.c: 87:         {;menu.c: 88:             clcd_write(0x01, 0);
  5071     17F4  01F0               	clrf	clcd_write@mode
  5072     17F5  3001               	movlw	1
  5073     17F6  160A  118A  236D  160A  118A  	fcall	_clcd_write
  5074     17FB                     l3337:
  5075                           
  5076                           ;menu.c: 89:             return (index + 1);
  5077     17FB  1283               	bcf	3,5	;RP0=0, select bank0
  5078     17FC  1303               	bcf	3,6	;RP1=0, select bank0
  5079     17FD  0822               	movf	menu_screen@index,w
  5080     17FE  3E01               	addlw	1
  5081     17FF                     l384:
  5082     17FF  0008               	return
  5083     1800                     __end_of_menu_screen:
  5084                           
  5085                           	psect	text8
  5086     0CE4                     __ptext8:	
  5087 ;; *************** function _login_screen *****************
  5088 ;; Defined at:
  5089 ;;		line 125 in file "dashboard.c"
  5090 ;; Parameters:    Size  Location     Type
  5091 ;;  oper            1   10[COMMON] PTR unsigned char 
  5092 ;;		 -> main@operation(1), 
  5093 ;; Auto vars:     Size  Location     Type
  5094 ;;  key             1    0[BANK0 ] unsigned char 
  5095 ;; Return value:  Size  Location     Type
  5096 ;;                  1    wreg      void 
  5097 ;; Registers used:
  5098 ;;		wreg, fsr0l, fsr0h, status,2, status,0, pclath, btemp1, cstack
  5099 ;; Tracked objects:
  5100 ;;		On entry : 0/0
  5101 ;;		On exit  : 0/0
  5102 ;;		Unchanged: 0/0
  5103 ;; Data sizes:     COMMON   BANK0   BANK1   BANK3   BANK2
  5104 ;;      Params:         1       0       0       0       0
  5105 ;;      Locals:         0       1       0       0       0
  5106 ;;      Temps:          3       0       0       0       0
  5107 ;;      Totals:         4       1       0       0       0
  5108 ;;Total ram usage:        5 bytes
  5109 ;; Hardware stack levels used: 1
  5110 ;; Hardware stack levels required when called: 1
  5111 ;; This function calls:
  5112 ;;		_clcd_print
  5113 ;;		_clcd_putch
  5114 ;;		_clcd_write
  5115 ;;		_my_strcmp
  5116 ;;		_read_digital_keypad
  5117 ;; This function is called by:
  5118 ;;		_main
  5119 ;; This function uses a non-reentrant model
  5120 ;;
  5121                           
  5122     0CE4                     _login_screen:	
  5123                           ;psect for function _login_screen
  5124                           
  5125     0CE4                     l3193:	
  5126                           ;incstack = 0
  5127                           ; Regs used in _login_screen: [wreg-fsr0h+status,2+status,0+pclath+btemp1+cstack]
  5128                           
  5129                           
  5130                           ;dashboard.c: 125: void login_screen(unsigned char *oper);dashboard.c: 126: {;dashboard.
      +                          c: 127:     unsigned char key;;dashboard.c: 129:     if(lock_flag)
  5131     0CE4  1283               	bcf	3,5	;RP0=0, select bank0
  5132     0CE5  1303               	bcf	3,6	;RP1=0, select bank0
  5133     0CE6  085B               	movf	_lock_flag,w
  5134     0CE7  1903               	btfsc	3,2
  5135     0CE8  2CEA               	goto	u3381
  5136     0CE9  2CEB               	goto	u3380
  5137     0CEA                     u3381:
  5138     0CEA  2D38               	goto	l3213
  5139     0CEB                     u3380:
  5140     0CEB                     l3195:
  5141                           
  5142                           ;dashboard.c: 130:     {;dashboard.c: 132:         clcd_print("  User Blocked", (0x80 + 
      +                          0));
  5143     0CEB  30D0               	movlw	low (STR_16| (0+32768))
  5144     0CEC  00F4               	movwf	clcd_print@str
  5145     0CED  3088               	movlw	high (STR_16| (0+32768))
  5146     0CEE  00F5               	movwf	clcd_print@str+1
  5147     0CEF  3080               	movlw	128
  5148     0CF0  00F6               	movwf	clcd_print@addr
  5149     0CF1  160A  118A  22AB  120A  158A  	fcall	_clcd_print
  5150                           
  5151                           ;dashboard.c: 133:         clcd_print("  Wait 30 Sec's", (0xC0 + 0));
  5152     0CF6  30B1               	movlw	low (STR_17| (0+32768))
  5153     0CF7  00F4               	movwf	clcd_print@str
  5154     0CF8  3088               	movlw	high (STR_17| (0+32768))
  5155     0CF9  00F5               	movwf	clcd_print@str+1
  5156     0CFA  30C0               	movlw	192
  5157     0CFB  00F6               	movwf	clcd_print@addr
  5158     0CFC  160A  118A  22AB  120A  158A  	fcall	_clcd_print
  5159     0D01                     l3197:
  5160                           
  5161                           ;dashboard.c: 135:         _delay((unsigned long)((1000)*(20000000/4000.0)));
  5162     0D01  301A               	movlw	26
  5163     0D02  00FD               	movwf	??_login_screen+2
  5164     0D03  305E               	movlw	94
  5165     0D04  00FC               	movwf	??_login_screen+1
  5166     0D05  306E               	movlw	110
  5167     0D06  00FB               	movwf	??_login_screen
  5168     0D07                     u4127:
  5169     0D07  0BFB               	decfsz	??_login_screen,f
  5170     0D08  2D07               	goto	u4127
  5171     0D09  0BFC               	decfsz	??_login_screen+1,f
  5172     0D0A  2D07               	goto	u4127
  5173     0D0B  0BFD               	decfsz	??_login_screen+2,f
  5174     0D0C  2D07               	goto	u4127
  5175     0D0D  0000               	nop
  5176     0D0E                     l3199:
  5177                           
  5178                           ;dashboard.c: 136:         lock_timer++;
  5179     0D0E  3001               	movlw	1
  5180     0D0F  1283               	bcf	3,5	;RP0=0, select bank0
  5181     0D10  1303               	bcf	3,6	;RP1=0, select bank0
  5182     0D11  07D7               	addwf	_lock_timer,f
  5183     0D12  1803               	skipnc
  5184     0D13  0AD8               	incf	_lock_timer+1,f
  5185     0D14  3000               	movlw	0
  5186     0D15  07D8               	addwf	_lock_timer+1,f
  5187     0D16                     l3201:
  5188                           
  5189                           ;dashboard.c: 138:         if (lock_timer >= 30)
  5190     0D16  3000               	movlw	0
  5191     0D17  0258               	subwf	_lock_timer+1,w
  5192     0D18  301E               	movlw	30
  5193     0D19  1903               	skipnz
  5194     0D1A  0257               	subwf	_lock_timer,w
  5195     0D1B  1C03               	skipc
  5196     0D1C  2D1E               	goto	u3391
  5197     0D1D  2D1F               	goto	u3390
  5198     0D1E                     u3391:
  5199     0D1E  2E49               	goto	l345
  5200     0D1F                     u3390:
  5201     0D1F                     l3203:
  5202                           
  5203                           ;dashboard.c: 139:         {;dashboard.c: 140:             lock_timer = 0;
  5204     0D1F  01D7               	clrf	_lock_timer
  5205     0D20  01D8               	clrf	_lock_timer+1
  5206                           
  5207                           ;dashboard.c: 141:             lock_flag = 0;
  5208     0D21  01DB               	clrf	_lock_flag
  5209     0D22                     l3205:
  5210                           
  5211                           ;dashboard.c: 142:             attempts_left = 3;
  5212     0D22  3003               	movlw	3
  5213     0D23  00EC               	movwf	_attempts_left
  5214                           
  5215                           ;dashboard.c: 143:             login_index = 0;
  5216     0D24  01DD               	clrf	_login_index
  5217     0D25                     l3207:
  5218                           
  5219                           ;dashboard.c: 145:             clcd_write(0x01, 0);
  5220     0D25  01F0               	clrf	clcd_write@mode
  5221     0D26  3001               	movlw	1
  5222     0D27  160A  118A  236D  120A  158A  	fcall	_clcd_write
  5223     0D2C                     l3209:
  5224                           
  5225                           ;dashboard.c: 146:             clcd_print("Enter Password", (0x80 + 0));
  5226     0D2C  30EE               	movlw	low (STR_18| (0+32768))
  5227     0D2D  00F4               	movwf	clcd_print@str
  5228     0D2E  3088               	movlw	high (STR_18| (0+32768))
  5229     0D2F  00F5               	movwf	clcd_print@str+1
  5230     0D30  3080               	movlw	128
  5231     0D31  00F6               	movwf	clcd_print@addr
  5232     0D32  160A  118A  22AB  120A  158A  	fcall	_clcd_print
  5233     0D37  2E49               	goto	l345
  5234     0D38                     l3213:
  5235                           
  5236                           ;dashboard.c: 150:     clcd_print("Enter Password", (0x80 + 0));
  5237     0D38  30EE               	movlw	low (STR_18| (0+32768))
  5238     0D39  00F4               	movwf	clcd_print@str
  5239     0D3A  3088               	movlw	high (STR_18| (0+32768))
  5240     0D3B  00F5               	movwf	clcd_print@str+1
  5241     0D3C  3080               	movlw	128
  5242     0D3D  00F6               	movwf	clcd_print@addr
  5243     0D3E  160A  118A  22AB  120A  158A  	fcall	_clcd_print
  5244     0D43                     l3215:
  5245                           
  5246                           ;dashboard.c: 151:     key = read_digital_keypad(1);
  5247     0D43  3001               	movlw	1
  5248     0D44  120A  158A  21D2  120A  158A  	fcall	_read_digital_keypad
  5249     0D49  1283               	bcf	3,5	;RP0=0, select bank0
  5250     0D4A  1303               	bcf	3,6	;RP1=0, select bank0
  5251     0D4B  00A0               	movwf	login_screen@key
  5252     0D4C                     l3217:
  5253                           
  5254                           ;dashboard.c: 152:     if(*oper==1)
  5255     0D4C  087A               	movf	login_screen@oper,w
  5256     0D4D  0084               	movwf	4
  5257     0D4E  1383               	bcf	3,7	;select IRP bank0
  5258     0D4F  0300               	decf	0,w
  5259     0D50  1D03               	btfss	3,2
  5260     0D51  2D53               	goto	u3401
  5261     0D52  2D54               	goto	u3400
  5262     0D53                     u3401:
  5263     0D53  2E49               	goto	l345
  5264     0D54                     u3400:
  5265     0D54                     l3219:
  5266                           
  5267                           ;dashboard.c: 153:     {;dashboard.c: 154:     if (login_index < 4)
  5268     0D54  3004               	movlw	4
  5269     0D55  025D               	subwf	_login_index,w
  5270     0D56  1803               	skipnc
  5271     0D57  2D59               	goto	u3411
  5272     0D58  2D5A               	goto	u3410
  5273     0D59                     u3411:
  5274     0D59  2DAF               	goto	l3249
  5275     0D5A                     u3410:
  5276     0D5A                     l3221:
  5277                           
  5278                           ;dashboard.c: 155:     {;dashboard.c: 157:         if (login_delay < 5)
  5279     0D5A  3005               	movlw	5
  5280     0D5B  025C               	subwf	_login_delay,w
  5281     0D5C  1803               	skipnc
  5282     0D5D  2D5F               	goto	u3421
  5283     0D5E  2D60               	goto	u3420
  5284     0D5F                     u3421:
  5285     0D5F  2D6A               	goto	l3225
  5286     0D60                     u3420:
  5287     0D60                     l3223:
  5288                           
  5289                           ;dashboard.c: 158:             clcd_putch('_', (0xC0 + login_index+4));
  5290     0D60  085D               	movf	_login_index,w
  5291     0D61  3EC4               	addlw	196
  5292     0D62  00F8               	movwf	clcd_putch@addr
  5293     0D63  305F               	movlw	95
  5294     0D64  160A  118A  20F6  120A  158A  	fcall	_clcd_putch
  5295     0D69  2D7B               	goto	l3231
  5296     0D6A                     l3225:
  5297     0D6A  300A               	movlw	10
  5298     0D6B  025C               	subwf	_login_delay,w
  5299     0D6C  1803               	skipnc
  5300     0D6D  2D6F               	goto	u3431
  5301     0D6E  2D70               	goto	u3430
  5302     0D6F                     u3431:
  5303     0D6F  2D7A               	goto	l3229
  5304     0D70                     u3430:
  5305     0D70                     l3227:
  5306                           
  5307                           ;dashboard.c: 160:             clcd_putch(' ', (0xC0 + login_index+4));
  5308     0D70  085D               	movf	_login_index,w
  5309     0D71  3EC4               	addlw	196
  5310     0D72  00F8               	movwf	clcd_putch@addr
  5311     0D73  3020               	movlw	32
  5312     0D74  160A  118A  20F6  120A  158A  	fcall	_clcd_putch
  5313     0D79  2D7B               	goto	l3231
  5314     0D7A                     l3229:
  5315                           
  5316                           ;dashboard.c: 162:             login_delay = 0;
  5317     0D7A  01DC               	clrf	_login_delay
  5318     0D7B                     l3231:
  5319                           
  5320                           ;dashboard.c: 164:         login_delay++;
  5321     0D7B  3001               	movlw	1
  5322     0D7C  1283               	bcf	3,5	;RP0=0, select bank0
  5323     0D7D  1303               	bcf	3,6	;RP1=0, select bank0
  5324     0D7E  07DC               	addwf	_login_delay,f
  5325     0D7F                     l3233:
  5326                           
  5327                           ;dashboard.c: 168:         if (key == 0x3E)
  5328     0D7F  303E               	movlw	62
  5329     0D80  0620               	xorwf	login_screen@key,w
  5330     0D81  1D03               	btfss	3,2
  5331     0D82  2D84               	goto	u3441
  5332     0D83  2D85               	goto	u3440
  5333     0D84                     u3441:
  5334     0D84  2D99               	goto	l3241
  5335     0D85                     u3440:
  5336     0D85                     l3235:
  5337                           
  5338                           ;dashboard.c: 169:         {;dashboard.c: 170:             user_pass[login_index] = '0';
  5339     0D85  085D               	movf	_login_index,w
  5340     0D86  3E5E               	addlw	(low (_user_pass| 0))& (0+255)
  5341     0D87  0084               	movwf	4
  5342     0D88  3030               	movlw	48
  5343     0D89  1383               	bcf	3,7	;select IRP bank0
  5344     0D8A  0080               	movwf	0
  5345     0D8B                     l3237:
  5346                           
  5347                           ;dashboard.c: 171:             clcd_putch('*', (0xC0 + login_index+4));
  5348     0D8B  085D               	movf	_login_index,w
  5349     0D8C  3EC4               	addlw	196
  5350     0D8D  00F8               	movwf	clcd_putch@addr
  5351     0D8E  302A               	movlw	42
  5352     0D8F  160A  118A  20F6  120A  158A  	fcall	_clcd_putch
  5353     0D94                     l3239:
  5354                           
  5355                           ;dashboard.c: 172:             login_index++;
  5356     0D94  3001               	movlw	1
  5357     0D95  1283               	bcf	3,5	;RP0=0, select bank0
  5358     0D96  1303               	bcf	3,6	;RP1=0, select bank0
  5359     0D97  07DD               	addwf	_login_index,f
  5360                           
  5361                           ;dashboard.c: 173:         }
  5362     0D98  2E49               	goto	l345
  5363     0D99                     l3241:
  5364     0D99  303D               	movlw	61
  5365     0D9A  0620               	xorwf	login_screen@key,w
  5366     0D9B  1D03               	btfss	3,2
  5367     0D9C  2D9E               	goto	u3451
  5368     0D9D  2D9F               	goto	u3450
  5369     0D9E                     u3451:
  5370     0D9E  2E49               	goto	l345
  5371     0D9F                     u3450:
  5372     0D9F                     l3243:
  5373                           
  5374                           ;dashboard.c: 175:         {;dashboard.c: 176:             user_pass[login_index] = '1';
  5375     0D9F  085D               	movf	_login_index,w
  5376     0DA0  3E5E               	addlw	(low (_user_pass| 0))& (0+255)
  5377     0DA1  0084               	movwf	4
  5378     0DA2  3031               	movlw	49
  5379     0DA3  1383               	bcf	3,7	;select IRP bank0
  5380     0DA4  0080               	movwf	0
  5381     0DA5                     l3245:
  5382                           
  5383                           ;dashboard.c: 177:             clcd_putch('*', (0xC0 + login_index+4));
  5384     0DA5  085D               	movf	_login_index,w
  5385     0DA6  3EC4               	addlw	196
  5386     0DA7  00F8               	movwf	clcd_putch@addr
  5387     0DA8  302A               	movlw	42
  5388     0DA9  160A  118A  20F6  120A  158A  	fcall	_clcd_putch
  5389     0DAE  2D94               	goto	l3239
  5390     0DAF                     l3249:
  5391                           
  5392                           ;dashboard.c: 182:     {;dashboard.c: 183:         user_pass[4] = '\0';
  5393     0DAF  01E2               	clrf	_user_pass+4
  5394     0DB0                     l3251:
  5395                           
  5396                           ;dashboard.c: 185:         if (my_strcmp(user_pass,pass) == 0)
  5397     0DB0  305E               	movlw	(low (_user_pass| 0))& (0+255)
  5398     0DB1  00F0               	movwf	my_strcmp@str1
  5399     0DB2  30D2               	movlw	(low (_pass| 0))& (0+255)
  5400     0DB3  00F1               	movwf	my_strcmp@str2
  5401     0DB4  160A  118A  230A  120A  158A  	fcall	_my_strcmp
  5402     0DB9  0870               	movf	?_my_strcmp,w
  5403     0DBA  0471               	iorwf	?_my_strcmp+1,w
  5404     0DBB  1D03               	btfss	3,2
  5405     0DBC  2DBE               	goto	u3461
  5406     0DBD  2DBF               	goto	u3460
  5407     0DBE                     u3461:
  5408     0DBE  2DE4               	goto	l3261
  5409     0DBF                     u3460:
  5410     0DBF                     l3253:
  5411                           
  5412                           ;dashboard.c: 186:         {;dashboard.c: 187:             clcd_write(0x01, 0);
  5413     0DBF  01F0               	clrf	clcd_write@mode
  5414     0DC0  3001               	movlw	1
  5415     0DC1  160A  118A  236D  120A  158A  	fcall	_clcd_write
  5416     0DC6                     l3255:
  5417                           
  5418                           ;dashboard.c: 188:             clcd_print("Login Success", (0x80 + 0));
  5419     0DC6  3019               	movlw	low (STR_20| (0+32768))
  5420     0DC7  00F4               	movwf	clcd_print@str
  5421     0DC8  3089               	movlw	high (STR_20| (0+32768))
  5422     0DC9  00F5               	movwf	clcd_print@str+1
  5423     0DCA  3080               	movlw	128
  5424     0DCB  00F6               	movwf	clcd_print@addr
  5425     0DCC  160A  118A  22AB  120A  158A  	fcall	_clcd_print
  5426     0DD1                     l3257:
  5427                           
  5428                           ;dashboard.c: 189:             _delay((unsigned long)((1000)*(20000000/4000.0)));
  5429     0DD1  301A               	movlw	26
  5430     0DD2  00FD               	movwf	??_login_screen+2
  5431     0DD3  305E               	movlw	94
  5432     0DD4  00FC               	movwf	??_login_screen+1
  5433     0DD5  306E               	movlw	110
  5434     0DD6  00FB               	movwf	??_login_screen
  5435     0DD7                     u4137:
  5436     0DD7  0BFB               	decfsz	??_login_screen,f
  5437     0DD8  2DD7               	goto	u4137
  5438     0DD9  0BFC               	decfsz	??_login_screen+1,f
  5439     0DDA  2DD7               	goto	u4137
  5440     0DDB  0BFD               	decfsz	??_login_screen+2,f
  5441     0DDC  2DD7               	goto	u4137
  5442     0DDD  0000               	nop
  5443     0DDE                     l3259:
  5444                           
  5445                           ;dashboard.c: 191:             *oper = 2;
  5446     0DDE  087A               	movf	login_screen@oper,w
  5447     0DDF  0084               	movwf	4
  5448     0DE0  3002               	movlw	2
  5449     0DE1  1383               	bcf	3,7	;select IRP bank0
  5450     0DE2  0080               	movwf	0
  5451                           
  5452                           ;dashboard.c: 192:         }
  5453     0DE3  2E49               	goto	l345
  5454     0DE4                     l3261:
  5455                           
  5456                           ;dashboard.c: 194:         {;dashboard.c: 195:             attempts_left--;
  5457     0DE4  3001               	movlw	1
  5458     0DE5  1283               	bcf	3,5	;RP0=0, select bank0
  5459     0DE6  1303               	bcf	3,6	;RP1=0, select bank0
  5460     0DE7  02EC               	subwf	_attempts_left,f
  5461                           
  5462                           ;dashboard.c: 196:             attempt_s[0]=attempts_left+'0';
  5463     0DE8  086C               	movf	_attempts_left,w
  5464     0DE9  3E30               	addlw	48
  5465     0DEA  00E9               	movwf	_attempt_s
  5466     0DEB                     l3263:
  5467                           
  5468                           ;dashboard.c: 197:             attempt_s[1]='\0';
  5469     0DEB  01EA               	clrf	_attempt_s+1
  5470     0DEC                     l3265:
  5471                           
  5472                           ;dashboard.c: 198:             clcd_write(0x01, 0);
  5473     0DEC  01F0               	clrf	clcd_write@mode
  5474     0DED  3001               	movlw	1
  5475     0DEE  160A  118A  236D  120A  158A  	fcall	_clcd_write
  5476     0DF3                     l3267:
  5477                           
  5478                           ;dashboard.c: 199:             clcd_print("Wrong Password", (0x80 + 0));
  5479     0DF3  30DF               	movlw	low (STR_21| (0+32768))
  5480     0DF4  00F4               	movwf	clcd_print@str
  5481     0DF5  3088               	movlw	high (STR_21| (0+32768))
  5482     0DF6  00F5               	movwf	clcd_print@str+1
  5483     0DF7  3080               	movlw	128
  5484     0DF8  00F6               	movwf	clcd_print@addr
  5485     0DF9  160A  118A  22AB  120A  158A  	fcall	_clcd_print
  5486     0DFE                     l3269:
  5487                           
  5488                           ;dashboard.c: 200:             clcd_print("Attempts left:",(0xC0 + 0));
  5489     0DFE  30C1               	movlw	low (STR_22| (0+32768))
  5490     0DFF  00F4               	movwf	clcd_print@str
  5491     0E00  3088               	movlw	high (STR_22| (0+32768))
  5492     0E01  00F5               	movwf	clcd_print@str+1
  5493     0E02  30C0               	movlw	192
  5494     0E03  00F6               	movwf	clcd_print@addr
  5495     0E04  160A  118A  22AB  120A  158A  	fcall	_clcd_print
  5496     0E09                     l3271:
  5497                           
  5498                           ;dashboard.c: 201:             clcd_print(attempt_s,(0xC0 + 14));
  5499     0E09  3069               	movlw	(low (_attempt_s| 0))& (0+255)
  5500     0E0A  00F4               	movwf	clcd_print@str
  5501     0E0B  3000               	movlw	0
  5502     0E0C  00F5               	movwf	clcd_print@str+1
  5503     0E0D  30CE               	movlw	206
  5504     0E0E  00F6               	movwf	clcd_print@addr
  5505     0E0F  160A  118A  22AB  120A  158A  	fcall	_clcd_print
  5506     0E14                     l3273:
  5507                           
  5508                           ;dashboard.c: 203:             _delay((unsigned long)((1000)*(20000000/4000.0)));
  5509     0E14  301A               	movlw	26
  5510     0E15  00FD               	movwf	??_login_screen+2
  5511     0E16  305E               	movlw	94
  5512     0E17  00FC               	movwf	??_login_screen+1
  5513     0E18  306E               	movlw	110
  5514     0E19  00FB               	movwf	??_login_screen
  5515     0E1A                     u4147:
  5516     0E1A  0BFB               	decfsz	??_login_screen,f
  5517     0E1B  2E1A               	goto	u4147
  5518     0E1C  0BFC               	decfsz	??_login_screen+1,f
  5519     0E1D  2E1A               	goto	u4147
  5520     0E1E  0BFD               	decfsz	??_login_screen+2,f
  5521     0E1F  2E1A               	goto	u4147
  5522     0E20  0000               	nop
  5523     0E21                     l3275:
  5524                           
  5525                           ;dashboard.c: 205:             if(attempts_left==0)
  5526     0E21  1283               	bcf	3,5	;RP0=0, select bank0
  5527     0E22  1303               	bcf	3,6	;RP1=0, select bank0
  5528     0E23  086C               	movf	_attempts_left,w
  5529     0E24  1D03               	btfss	3,2
  5530     0E25  2E27               	goto	u3471
  5531     0E26  2E28               	goto	u3470
  5532     0E27                     u3471:
  5533     0E27  2E34               	goto	l3285
  5534     0E28                     u3470:
  5535     0E28                     l3277:
  5536                           
  5537                           ;dashboard.c: 206:             {;dashboard.c: 207:                 lock_flag = 1;
  5538     0E28  3001               	movlw	1
  5539     0E29  00DB               	movwf	_lock_flag
  5540     0E2A                     l3279:
  5541                           
  5542                           ;dashboard.c: 208:                 lock_timer = 0;
  5543     0E2A  01D7               	clrf	_lock_timer
  5544     0E2B  01D8               	clrf	_lock_timer+1
  5545     0E2C                     l3281:
  5546                           
  5547                           ;dashboard.c: 209:                 clcd_write(0x01, 0);
  5548     0E2C  01F0               	clrf	clcd_write@mode
  5549     0E2D  3001               	movlw	1
  5550     0E2E  160A  118A  236D  120A  158A  	fcall	_clcd_write
  5551     0E33  2E49               	goto	l345
  5552     0E34                     l3285:
  5553                           
  5554                           ;dashboard.c: 213:             clcd_write(0x01, 0);
  5555     0E34  01F0               	clrf	clcd_write@mode
  5556     0E35  3001               	movlw	1
  5557     0E36  160A  118A  236D  120A  158A  	fcall	_clcd_write
  5558     0E3B                     l3287:
  5559                           
  5560                           ;dashboard.c: 214:             clcd_print("Enter Password", (0x80 + 0));
  5561     0E3B  30EE               	movlw	low (STR_18| (0+32768))
  5562     0E3C  00F4               	movwf	clcd_print@str
  5563     0E3D  3088               	movlw	high (STR_18| (0+32768))
  5564     0E3E  00F5               	movwf	clcd_print@str+1
  5565     0E3F  3080               	movlw	128
  5566     0E40  00F6               	movwf	clcd_print@addr
  5567     0E41  160A  118A  22AB  120A  158A  	fcall	_clcd_print
  5568     0E46                     l3289:
  5569                           
  5570                           ;dashboard.c: 216:             login_index = 0;
  5571     0E46  1283               	bcf	3,5	;RP0=0, select bank0
  5572     0E47  1303               	bcf	3,6	;RP1=0, select bank0
  5573     0E48  01DD               	clrf	_login_index
  5574     0E49                     l345:
  5575     0E49  0008               	return
  5576     0E4A                     __end_of_login_screen:
  5577                           
  5578                           	psect	text9
  5579     122C                     __ptext9:	
  5580 ;; *************** function _init_config *****************
  5581 ;; Defined at:
  5582 ;;		line 24 in file "main.c"
  5583 ;; Parameters:    Size  Location     Type
  5584 ;;		None
  5585 ;; Auto vars:     Size  Location     Type
  5586 ;;		None
  5587 ;; Return value:  Size  Location     Type
  5588 ;;                  1    wreg      void 
  5589 ;; Registers used:
  5590 ;;		wreg, status,2, status,0, pclath, cstack
  5591 ;; Tracked objects:
  5592 ;;		On entry : 0/0
  5593 ;;		On exit  : 0/0
  5594 ;;		Unchanged: 0/0
  5595 ;; Data sizes:     COMMON   BANK0   BANK1   BANK3   BANK2
  5596 ;;      Params:         0       0       0       0       0
  5597 ;;      Locals:         0       0       0       0       0
  5598 ;;      Temps:          0       0       0       0       0
  5599 ;;      Totals:         0       0       0       0       0
  5600 ;;Total ram usage:        0 bytes
  5601 ;; Hardware stack levels used: 1
  5602 ;; Hardware stack levels required when called: 3
  5603 ;; This function calls:
  5604 ;;		_init_adc
  5605 ;;		_init_clcd
  5606 ;;		_init_digital_keypad
  5607 ;;		_init_ds1307
  5608 ;;		_init_i2c
  5609 ;;		_init_uart
  5610 ;; This function is called by:
  5611 ;;		_main
  5612 ;; This function uses a non-reentrant model
  5613 ;;
  5614                           
  5615     122C                     _init_config:	
  5616                           ;psect for function _init_config
  5617                           
  5618     122C                     l3135:	
  5619                           ;incstack = 0
  5620                           ; Regs used in _init_config: [wreg+status,2+status,0+pclath+cstack]
  5621                           
  5622                           
  5623                           ;main.c: 26:     init_adc();
  5624     122C  160A  118A  2095  160A  118A  	fcall	_init_adc
  5625     1231                     l3137:
  5626                           
  5627                           ;main.c: 27:     init_clcd();
  5628     1231  160A  118A  20CE  160A  118A  	fcall	_init_clcd
  5629     1236                     l3139:
  5630                           
  5631                           ;main.c: 28:     init_digital_keypad();
  5632     1236  160A  118A  208F  160A  118A  	fcall	_init_digital_keypad
  5633     123B                     l3141:
  5634                           
  5635                           ;main.c: 29:     init_i2c(100000);
  5636     123B  3000               	movlw	0
  5637     123C  1283               	bcf	3,5	;RP0=0, select bank0
  5638     123D  1303               	bcf	3,6	;RP1=0, select bank0
  5639     123E  00A3               	movwf	init_i2c@baud+3
  5640     123F  3001               	movlw	1
  5641     1240  00A2               	movwf	init_i2c@baud+2
  5642     1241  3086               	movlw	134
  5643     1242  00A1               	movwf	init_i2c@baud+1
  5644     1243  30A0               	movlw	160
  5645     1244  00A0               	movwf	init_i2c@baud
  5646     1245  160A  118A  233B  160A  118A  	fcall	_init_i2c
  5647     124A                     l3143:
  5648                           
  5649                           ;main.c: 30:     init_ds1307();
  5650     124A  160A  118A  2107  160A  118A  	fcall	_init_ds1307
  5651                           
  5652                           ;main.c: 31:     init_uart();
  5653     124F  160A  118A  20E6  160A  118A  	fcall	_init_uart
  5654     1254                     l140:
  5655     1254  0008               	return
  5656     1255                     __end_of_init_config:
  5657                           
  5658                           	psect	text10
  5659     10E6                     __ptext10:	
  5660 ;; *************** function _init_uart *****************
  5661 ;; Defined at:
  5662 ;;		line 2 in file "uart.c"
  5663 ;; Parameters:    Size  Location     Type
  5664 ;;		None
  5665 ;; Auto vars:     Size  Location     Type
  5666 ;;		None
  5667 ;; Return value:  Size  Location     Type
  5668 ;;                  1    wreg      void 
  5669 ;; Registers used:
  5670 ;;		None
  5671 ;; Tracked objects:
  5672 ;;		On entry : 0/0
  5673 ;;		On exit  : 0/0
  5674 ;;		Unchanged: 0/0
  5675 ;; Data sizes:     COMMON   BANK0   BANK1   BANK3   BANK2
  5676 ;;      Params:         0       0       0       0       0
  5677 ;;      Locals:         0       0       0       0       0
  5678 ;;      Temps:          0       0       0       0       0
  5679 ;;      Totals:         0       0       0       0       0
  5680 ;;Total ram usage:        0 bytes
  5681 ;; Hardware stack levels used: 1
  5682 ;; This function calls:
  5683 ;;		Nothing
  5684 ;; This function is called by:
  5685 ;;		_init_config
  5686 ;; This function uses a non-reentrant model
  5687 ;;
  5688                           
  5689     10E6                     _init_uart:	
  5690                           ;psect for function _init_uart
  5691                           
  5692     10E6                     l2647:	
  5693                           ;incstack = 0
  5694                           ; Regs used in _init_uart: []
  5695                           
  5696                           
  5697                           ;uart.c: 10:     TRISC6=0;
  5698     10E6  1683               	bsf	3,5	;RP0=1, select bank1
  5699     10E7  1303               	bcf	3,6	;RP1=0, select bank1
  5700     10E8  1307               	bcf	7,6	;volatile
  5701                           
  5702                           ;uart.c: 11:     TRISC7=1;
  5703     10E9  1787               	bsf	7,7	;volatile
  5704                           
  5705                           ;uart.c: 13:     SYNC=0;
  5706     10EA  1218               	bcf	24,4	;volatile
  5707                           
  5708                           ;uart.c: 14:     BRGH =1;
  5709     10EB  1518               	bsf	24,2	;volatile
  5710                           
  5711                           ;uart.c: 15:     SPBRG=129;
  5712     10EC  3081               	movlw	129
  5713     10ED  0099               	movwf	25	;volatile
  5714                           
  5715                           ;uart.c: 17:     TX9=0;
  5716     10EE  1318               	bcf	24,6	;volatile
  5717                           
  5718                           ;uart.c: 18:     SPEN=1;
  5719     10EF  1283               	bcf	3,5	;RP0=0, select bank0
  5720     10F0  1303               	bcf	3,6	;RP1=0, select bank0
  5721     10F1  1798               	bsf	24,7	;volatile
  5722                           
  5723                           ;uart.c: 19:     TXEN=1;
  5724     10F2  1683               	bsf	3,5	;RP0=1, select bank1
  5725     10F3  1303               	bcf	3,6	;RP1=0, select bank1
  5726     10F4  1698               	bsf	24,5	;volatile
  5727     10F5                     l532:
  5728     10F5  0008               	return
  5729     10F6                     __end_of_init_uart:
  5730                           
  5731                           	psect	text11
  5732     133B                     __ptext11:	
  5733 ;; *************** function _init_i2c *****************
  5734 ;; Defined at:
  5735 ;;		line 4 in file "i2c.c"
  5736 ;; Parameters:    Size  Location     Type
  5737 ;;  baud            4    0[BANK0 ] unsigned long 
  5738 ;; Auto vars:     Size  Location     Type
  5739 ;;		None
  5740 ;; Return value:  Size  Location     Type
  5741 ;;                  1    wreg      void 
  5742 ;; Registers used:
  5743 ;;		wreg, status,2, status,0, pclath, cstack
  5744 ;; Tracked objects:
  5745 ;;		On entry : 0/0
  5746 ;;		On exit  : 0/0
  5747 ;;		Unchanged: 0/0
  5748 ;; Data sizes:     COMMON   BANK0   BANK1   BANK3   BANK2
  5749 ;;      Params:         0       4       0       0       0
  5750 ;;      Locals:         0       0       0       0       0
  5751 ;;      Temps:          0       4       0       0       0
  5752 ;;      Totals:         0       8       0       0       0
  5753 ;;Total ram usage:        8 bytes
  5754 ;; Hardware stack levels used: 1
  5755 ;; Hardware stack levels required when called: 1
  5756 ;; This function calls:
  5757 ;;		___lldiv
  5758 ;; This function is called by:
  5759 ;;		_init_config
  5760 ;; This function uses a non-reentrant model
  5761 ;;
  5762                           
  5763     133B                     _init_i2c:	
  5764                           ;psect for function _init_i2c
  5765                           
  5766     133B                     l2611:	
  5767                           ;incstack = 0
  5768                           ; Regs used in _init_i2c: [wreg+status,2+status,0+pclath+cstack]
  5769                           
  5770                           
  5771                           ;i2c.c: 4: void init_i2c(unsigned long baud);i2c.c: 5: {;i2c.c: 7:     SSPM3 = 1;
  5772     133B  1283               	bcf	3,5	;RP0=0, select bank0
  5773     133C  1303               	bcf	3,6	;RP1=0, select bank0
  5774     133D  1594               	bsf	20,3	;volatile
  5775     133E                     l2613:
  5776                           
  5777                           ;i2c.c: 10:     SSPADD = (unsigned char)(20000000 / (4 * baud)) - 1;
  5778     133E  0820               	movf	init_i2c@baud,w
  5779     133F  00A4               	movwf	??_init_i2c
  5780     1340  0821               	movf	init_i2c@baud+1,w
  5781     1341  00A5               	movwf	??_init_i2c+1
  5782     1342  0822               	movf	init_i2c@baud+2,w
  5783     1343  00A6               	movwf	??_init_i2c+2
  5784     1344  0823               	movf	init_i2c@baud+3,w
  5785     1345  00A7               	movwf	??_init_i2c+3
  5786     1346  3002               	movlw	2
  5787     1347                     u2215:
  5788     1347  1003               	clrc
  5789     1348  0DA4               	rlf	??_init_i2c,f
  5790     1349  0DA5               	rlf	??_init_i2c+1,f
  5791     134A  0DA6               	rlf	??_init_i2c+2,f
  5792     134B  0DA7               	rlf	??_init_i2c+3,f
  5793     134C                     u2210:
  5794     134C  3EFF               	addlw	-1
  5795     134D  1D03               	skipz
  5796     134E  2B47               	goto	u2215
  5797     134F  0827               	movf	??_init_i2c+3,w
  5798     1350  00F3               	movwf	___lldiv@divisor+3
  5799     1351  0826               	movf	??_init_i2c+2,w
  5800     1352  00F2               	movwf	___lldiv@divisor+2
  5801     1353  0825               	movf	??_init_i2c+1,w
  5802     1354  00F1               	movwf	___lldiv@divisor+1
  5803     1355  0824               	movf	??_init_i2c,w
  5804     1356  00F0               	movwf	___lldiv@divisor
  5805     1357  3001               	movlw	1
  5806     1358  00F7               	movwf	___lldiv@dividend+3
  5807     1359  3031               	movlw	49
  5808     135A  00F6               	movwf	___lldiv@dividend+2
  5809     135B  302D               	movlw	45
  5810     135C  00F5               	movwf	___lldiv@dividend+1
  5811     135D  3000               	movlw	0
  5812     135E  00F4               	movwf	___lldiv@dividend
  5813     135F  160A  118A  25C3  160A  118A  	fcall	___lldiv
  5814     1364  0870               	movf	?___lldiv,w
  5815     1365  3EFF               	addlw	255
  5816     1366  1683               	bsf	3,5	;RP0=1, select bank1
  5817     1367  1303               	bcf	3,6	;RP1=0, select bank1
  5818     1368  0093               	movwf	19	;volatile
  5819     1369                     l2615:
  5820                           
  5821                           ;i2c.c: 13:     SSPEN = 1;
  5822     1369  1283               	bcf	3,5	;RP0=0, select bank0
  5823     136A  1303               	bcf	3,6	;RP1=0, select bank0
  5824     136B  1694               	bsf	20,5	;volatile
  5825     136C                     l29:
  5826     136C  0008               	return
  5827     136D                     __end_of_init_i2c:
  5828                           
  5829                           	psect	text12
  5830     15C3                     __ptext12:	
  5831 ;; *************** function ___lldiv *****************
  5832 ;; Defined at:
  5833 ;;		line 5 in file "C:\Program Files\Microchip\xc8\v3.10\pic\sources\c99\common\__lldiv.c"
  5834 ;; Parameters:    Size  Location     Type
  5835 ;;  divisor         4    0[COMMON] unsigned long 
  5836 ;;  dividend        4    4[COMMON] unsigned long 
  5837 ;; Auto vars:     Size  Location     Type
  5838 ;;  quotient        4    9[COMMON] unsigned long 
  5839 ;;  counter         1   13[COMMON] unsigned char 
  5840 ;; Return value:  Size  Location     Type
  5841 ;;                  4    0[COMMON] unsigned long 
  5842 ;; Registers used:
  5843 ;;		wreg, status,2, status,0
  5844 ;; Tracked objects:
  5845 ;;		On entry : 0/0
  5846 ;;		On exit  : 0/0
  5847 ;;		Unchanged: 0/0
  5848 ;; Data sizes:     COMMON   BANK0   BANK1   BANK3   BANK2
  5849 ;;      Params:         8       0       0       0       0
  5850 ;;      Locals:         5       0       0       0       0
  5851 ;;      Temps:          1       0       0       0       0
  5852 ;;      Totals:        14       0       0       0       0
  5853 ;;Total ram usage:       14 bytes
  5854 ;; Hardware stack levels used: 1
  5855 ;; This function calls:
  5856 ;;		Nothing
  5857 ;; This function is called by:
  5858 ;;		_init_i2c
  5859 ;; This function uses a non-reentrant model
  5860 ;;
  5861                           
  5862     15C3                     ___lldiv:	
  5863                           ;psect for function ___lldiv
  5864                           
  5865     15C3                     l2587:	
  5866                           ;incstack = 0
  5867                           ; Regs used in ___lldiv: [wreg+status,2+status,0]
  5868                           
  5869     15C3  3000               	movlw	0
  5870     15C4  00FC               	movwf	___lldiv@quotient+3
  5871     15C5  3000               	movlw	0
  5872     15C6  00FB               	movwf	___lldiv@quotient+2
  5873     15C7  3000               	movlw	0
  5874     15C8  00FA               	movwf	___lldiv@quotient+1
  5875     15C9  3000               	movlw	0
  5876     15CA  00F9               	movwf	___lldiv@quotient
  5877     15CB  0873               	movf	___lldiv@divisor+3,w
  5878     15CC  0472               	iorwf	___lldiv@divisor+2,w
  5879     15CD  0471               	iorwf	___lldiv@divisor+1,w
  5880     15CE  0470               	iorwf	___lldiv@divisor,w
  5881     15CF  1903               	skipnz
  5882     15D0  2DD2               	goto	u2141
  5883     15D1  2DD3               	goto	u2140
  5884     15D2                     u2141:
  5885     15D2  2E1E               	goto	l2607
  5886     15D3                     u2140:
  5887     15D3                     l2589:
  5888     15D3  3001               	movlw	1
  5889     15D4  00FD               	movwf	___lldiv@counter
  5890     15D5  2DE1               	goto	l2593
  5891     15D6                     l2591:
  5892     15D6  3001               	movlw	1
  5893     15D7  00F8               	movwf	??___lldiv
  5894     15D8                     u2155:
  5895     15D8  1003               	clrc
  5896     15D9  0DF0               	rlf	___lldiv@divisor,f
  5897     15DA  0DF1               	rlf	___lldiv@divisor+1,f
  5898     15DB  0DF2               	rlf	___lldiv@divisor+2,f
  5899     15DC  0DF3               	rlf	___lldiv@divisor+3,f
  5900     15DD  0BF8               	decfsz	??___lldiv,f
  5901     15DE  2DD8               	goto	u2155
  5902     15DF  3001               	movlw	1
  5903     15E0  07FD               	addwf	___lldiv@counter,f
  5904     15E1                     l2593:
  5905     15E1  1FF3               	btfss	___lldiv@divisor+3,7
  5906     15E2  2DE4               	goto	u2161
  5907     15E3  2DE5               	goto	u2160
  5908     15E4                     u2161:
  5909     15E4  2DD6               	goto	l2591
  5910     15E5                     u2160:
  5911     15E5                     l2595:
  5912     15E5  3001               	movlw	1
  5913     15E6  00F8               	movwf	??___lldiv
  5914     15E7                     u2175:
  5915     15E7  1003               	clrc
  5916     15E8  0DF9               	rlf	___lldiv@quotient,f
  5917     15E9  0DFA               	rlf	___lldiv@quotient+1,f
  5918     15EA  0DFB               	rlf	___lldiv@quotient+2,f
  5919     15EB  0DFC               	rlf	___lldiv@quotient+3,f
  5920     15EC  0BF8               	decfsz	??___lldiv,f
  5921     15ED  2DE7               	goto	u2175
  5922     15EE                     l2597:
  5923     15EE  0873               	movf	___lldiv@divisor+3,w
  5924     15EF  0277               	subwf	___lldiv@dividend+3,w
  5925     15F0  1D03               	skipz
  5926     15F1  2DFC               	goto	u2185
  5927     15F2  0872               	movf	___lldiv@divisor+2,w
  5928     15F3  0276               	subwf	___lldiv@dividend+2,w
  5929     15F4  1D03               	skipz
  5930     15F5  2DFC               	goto	u2185
  5931     15F6  0871               	movf	___lldiv@divisor+1,w
  5932     15F7  0275               	subwf	___lldiv@dividend+1,w
  5933     15F8  1D03               	skipz
  5934     15F9  2DFC               	goto	u2185
  5935     15FA  0870               	movf	___lldiv@divisor,w
  5936     15FB  0274               	subwf	___lldiv@dividend,w
  5937     15FC                     u2185:
  5938     15FC  1C03               	skipc
  5939     15FD  2DFF               	goto	u2181
  5940     15FE  2E00               	goto	u2180
  5941     15FF                     u2181:
  5942     15FF  2E0F               	goto	l2603
  5943     1600                     u2180:
  5944     1600                     l2599:
  5945     1600  0870               	movf	___lldiv@divisor,w
  5946     1601  02F4               	subwf	___lldiv@dividend,f
  5947     1602  0871               	movf	___lldiv@divisor+1,w
  5948     1603  1C03               	skipc
  5949     1604  0F71               	incfsz	___lldiv@divisor+1,w
  5950     1605  02F5               	subwf	___lldiv@dividend+1,f
  5951     1606  0872               	movf	___lldiv@divisor+2,w
  5952     1607  1C03               	skipc
  5953     1608  0F72               	incfsz	___lldiv@divisor+2,w
  5954     1609  02F6               	subwf	___lldiv@dividend+2,f
  5955     160A  0873               	movf	___lldiv@divisor+3,w
  5956     160B  1C03               	skipc
  5957     160C  0F73               	incfsz	___lldiv@divisor+3,w
  5958     160D  02F7               	subwf	___lldiv@dividend+3,f
  5959     160E                     l2601:
  5960     160E  1479               	bsf	___lldiv@quotient,0
  5961     160F                     l2603:
  5962     160F  3001               	movlw	1
  5963     1610                     u2195:
  5964     1610  1003               	clrc
  5965     1611  0CF3               	rrf	___lldiv@divisor+3,f
  5966     1612  0CF2               	rrf	___lldiv@divisor+2,f
  5967     1613  0CF1               	rrf	___lldiv@divisor+1,f
  5968     1614  0CF0               	rrf	___lldiv@divisor,f
  5969     1615  3EFF               	addlw	-1
  5970     1616  1D03               	skipz
  5971     1617  2E10               	goto	u2195
  5972     1618                     l2605:
  5973     1618  3001               	movlw	1
  5974     1619  02FD               	subwf	___lldiv@counter,f
  5975     161A  1D03               	btfss	3,2
  5976     161B  2E1D               	goto	u2201
  5977     161C  2E1E               	goto	u2200
  5978     161D                     u2201:
  5979     161D  2DE5               	goto	l2595
  5980     161E                     u2200:
  5981     161E                     l2607:
  5982     161E  087C               	movf	___lldiv@quotient+3,w
  5983     161F  00F3               	movwf	?___lldiv+3
  5984     1620  087B               	movf	___lldiv@quotient+2,w
  5985     1621  00F2               	movwf	?___lldiv+2
  5986     1622  087A               	movf	___lldiv@quotient+1,w
  5987     1623  00F1               	movwf	?___lldiv+1
  5988     1624  0879               	movf	___lldiv@quotient,w
  5989     1625  00F0               	movwf	?___lldiv
  5990     1626                     l685:
  5991     1626  0008               	return
  5992     1627                     __end_of___lldiv:
  5993                           
  5994                           	psect	text13
  5995     1107                     __ptext13:	
  5996 ;; *************** function _init_ds1307 *****************
  5997 ;; Defined at:
  5998 ;;		line 4 in file "ds1307.c"
  5999 ;; Parameters:    Size  Location     Type
  6000 ;;		None
  6001 ;; Auto vars:     Size  Location     Type
  6002 ;;  dummy           1   10[COMMON] unsigned char 
  6003 ;; Return value:  Size  Location     Type
  6004 ;;                  1    wreg      void 
  6005 ;; Registers used:
  6006 ;;		wreg, status,2, status,0, pclath, cstack
  6007 ;; Tracked objects:
  6008 ;;		On entry : 0/0
  6009 ;;		On exit  : 0/0
  6010 ;;		Unchanged: 0/0
  6011 ;; Data sizes:     COMMON   BANK0   BANK1   BANK3   BANK2
  6012 ;;      Params:         0       0       0       0       0
  6013 ;;      Locals:         1       0       0       0       0
  6014 ;;      Temps:          0       0       0       0       0
  6015 ;;      Totals:         1       0       0       0       0
  6016 ;;Total ram usage:        1 bytes
  6017 ;; Hardware stack levels used: 1
  6018 ;; Hardware stack levels required when called: 2
  6019 ;; This function calls:
  6020 ;;		_read_ds1307
  6021 ;;		_write_ds1307
  6022 ;; This function is called by:
  6023 ;;		_init_config
  6024 ;; This function uses a non-reentrant model
  6025 ;;
  6026                           
  6027     1107                     _init_ds1307:	
  6028                           ;psect for function _init_ds1307
  6029                           
  6030     1107                     l2617:	
  6031                           ;incstack = 0
  6032                           ; Regs used in _init_ds1307: [wreg+status,2+status,0+pclath+cstack]
  6033                           
  6034                           
  6035                           ;ds1307.c: 6:     unsigned char dummy;;ds1307.c: 8:     dummy = read_ds1307(0x00);
  6036     1107  3000               	movlw	0
  6037     1108  160A  118A  2255  160A  118A  	fcall	_read_ds1307
  6038     110D  00FA               	movwf	init_ds1307@dummy
  6039     110E                     l2619:
  6040                           
  6041                           ;ds1307.c: 9:     dummy = dummy & 0x7F;
  6042     110E  307F               	movlw	127
  6043     110F  05FA               	andwf	init_ds1307@dummy,f
  6044     1110                     l2621:
  6045                           
  6046                           ;ds1307.c: 10:     write_ds1307(0x00, dummy);
  6047     1110  087A               	movf	init_ds1307@dummy,w
  6048     1111  00F8               	movwf	write_ds1307@data
  6049     1112  3000               	movlw	0
  6050     1113  160A  118A  213F  160A  118A  	fcall	_write_ds1307
  6051     1118                     l73:
  6052     1118  0008               	return
  6053     1119                     __end_of_init_ds1307:
  6054                           
  6055                           	psect	text14
  6056     113F                     __ptext14:	
  6057 ;; *************** function _write_ds1307 *****************
  6058 ;; Defined at:
  6059 ;;		line 28 in file "ds1307.c"
  6060 ;; Parameters:    Size  Location     Type
  6061 ;;  addr            1    wreg     unsigned char 
  6062 ;;  data            1    8[COMMON] unsigned char 
  6063 ;; Auto vars:     Size  Location     Type
  6064 ;;  addr            1    9[COMMON] unsigned char 
  6065 ;; Return value:  Size  Location     Type
  6066 ;;                  1    wreg      void 
  6067 ;; Registers used:
  6068 ;;		wreg, status,2, status,0, pclath, cstack
  6069 ;; Tracked objects:
  6070 ;;		On entry : 0/0
  6071 ;;		On exit  : 0/0
  6072 ;;		Unchanged: 0/0
  6073 ;; Data sizes:     COMMON   BANK0   BANK1   BANK3   BANK2
  6074 ;;      Params:         1       0       0       0       0
  6075 ;;      Locals:         1       0       0       0       0
  6076 ;;      Temps:          0       0       0       0       0
  6077 ;;      Totals:         2       0       0       0       0
  6078 ;;Total ram usage:        2 bytes
  6079 ;; Hardware stack levels used: 1
  6080 ;; This function calls:
  6081 ;;		_i2c_start
  6082 ;;		_i2c_stop
  6083 ;;		_i2c_write
  6084 ;; This function is called by:
  6085 ;;		_init_ds1307
  6086 ;;		_set_time
  6087 ;; This function uses a non-reentrant model
  6088 ;;
  6089                           
  6090     113F                     _write_ds1307:	
  6091                           ;psect for function _write_ds1307
  6092                           
  6093                           
  6094                           ;incstack = 0
  6095                           ; Regs used in _write_ds1307: [wreg+status,2+status,0+pclath+cstack]
  6096                           ;write_ds1307@addr stored from wreg
  6097     113F  00F9               	movwf	write_ds1307@addr
  6098     1140                     l2543:
  6099                           
  6100                           ;ds1307.c: 28: void write_ds1307(unsigned char addr, unsigned char data);ds1307.c: 29: {
      +                          ;ds1307.c: 30:     i2c_start();
  6101     1140  160A  118A  209C  160A  118A  	fcall	_i2c_start
  6102                           
  6103                           ;ds1307.c: 31:     i2c_write(0b11010000);
  6104     1145  30D0               	movlw	208
  6105     1146  160A  118A  20C3  160A  118A  	fcall	_i2c_write
  6106                           
  6107                           ;ds1307.c: 32:     i2c_write(addr);
  6108     114B  0879               	movf	write_ds1307@addr,w
  6109     114C  160A  118A  20C3  160A  118A  	fcall	_i2c_write
  6110                           
  6111                           ;ds1307.c: 33:     i2c_write(data);
  6112     1151  0878               	movf	write_ds1307@data,w
  6113     1152  160A  118A  20C3  160A  118A  	fcall	_i2c_write
  6114                           
  6115                           ;ds1307.c: 34:     i2c_stop();
  6116     1157  160A  118A  20A5  160A  118A  	fcall	_i2c_stop
  6117     115C                     l79:
  6118     115C  0008               	return
  6119     115D                     __end_of_write_ds1307:
  6120                           
  6121                           	psect	text15
  6122     108F                     __ptext15:	
  6123 ;; *************** function _init_digital_keypad *****************
  6124 ;; Defined at:
  6125 ;;		line 4 in file "digital_keypad.c"
  6126 ;; Parameters:    Size  Location     Type
  6127 ;;		None
  6128 ;; Auto vars:     Size  Location     Type
  6129 ;;		None
  6130 ;; Return value:  Size  Location     Type
  6131 ;;                  1    wreg      void 
  6132 ;; Registers used:
  6133 ;;		wreg, status,2
  6134 ;; Tracked objects:
  6135 ;;		On entry : 0/0
  6136 ;;		On exit  : 0/0
  6137 ;;		Unchanged: 0/0
  6138 ;; Data sizes:     COMMON   BANK0   BANK1   BANK3   BANK2
  6139 ;;      Params:         0       0       0       0       0
  6140 ;;      Locals:         0       0       0       0       0
  6141 ;;      Temps:          0       0       0       0       0
  6142 ;;      Totals:         0       0       0       0       0
  6143 ;;Total ram usage:        0 bytes
  6144 ;; Hardware stack levels used: 1
  6145 ;; This function calls:
  6146 ;;		Nothing
  6147 ;; This function is called by:
  6148 ;;		_init_config
  6149 ;; This function uses a non-reentrant model
  6150 ;;
  6151                           
  6152     108F                     _init_digital_keypad:	
  6153                           ;psect for function _init_digital_keypad
  6154                           
  6155     108F                     l2645:	
  6156                           ;incstack = 0
  6157                           ; Regs used in _init_digital_keypad: [wreg+status,2]
  6158                           
  6159                           
  6160                           ;digital_keypad.c: 7:     TRISB = TRISB | 0x3F;
  6161     108F  1683               	bsf	3,5	;RP0=1, select bank1
  6162     1090  1303               	bcf	3,6	;RP1=0, select bank1
  6163     1091  0806               	movf	6,w	;volatile
  6164     1092  383F               	iorlw	63
  6165     1093  0086               	movwf	6	;volatile
  6166     1094                     l243:
  6167     1094  0008               	return
  6168     1095                     __end_of_init_digital_keypad:
  6169                           
  6170                           	psect	text16
  6171     10CE                     __ptext16:	
  6172 ;; *************** function _init_clcd *****************
  6173 ;; Defined at:
  6174 ;;		line 44 in file "clcd.c"
  6175 ;; Parameters:    Size  Location     Type
  6176 ;;		None
  6177 ;; Auto vars:     Size  Location     Type
  6178 ;;		None
  6179 ;; Return value:  Size  Location     Type
  6180 ;;                  1    wreg      void 
  6181 ;; Registers used:
  6182 ;;		wreg, status,2, status,0, pclath, cstack
  6183 ;; Tracked objects:
  6184 ;;		On entry : 0/0
  6185 ;;		On exit  : 0/0
  6186 ;;		Unchanged: 0/0
  6187 ;; Data sizes:     COMMON   BANK0   BANK1   BANK3   BANK2
  6188 ;;      Params:         0       0       0       0       0
  6189 ;;      Locals:         0       0       0       0       0
  6190 ;;      Temps:          0       0       0       0       0
  6191 ;;      Totals:         0       0       0       0       0
  6192 ;;Total ram usage:        0 bytes
  6193 ;; Hardware stack levels used: 1
  6194 ;; Hardware stack levels required when called: 2
  6195 ;; This function calls:
  6196 ;;		_init_display_controller
  6197 ;; This function is called by:
  6198 ;;		_init_config
  6199 ;; This function uses a non-reentrant model
  6200 ;;
  6201                           
  6202     10CE                     _init_clcd:	
  6203                           ;psect for function _init_clcd
  6204                           
  6205     10CE                     l2637:	
  6206                           ;incstack = 0
  6207                           ; Regs used in _init_clcd: [wreg+status,2+status,0+pclath+cstack]
  6208                           
  6209                           
  6210                           ;clcd.c: 47:     TRISD = 0x00;
  6211     10CE  1683               	bsf	3,5	;RP0=1, select bank1
  6212     10CF  1303               	bcf	3,6	;RP1=0, select bank1
  6213     10D0  0188               	clrf	8	;volatile
  6214     10D1                     l2639:
  6215                           
  6216                           ;clcd.c: 50:     TRISE2 = 0;
  6217     10D1  1109               	bcf	9,2	;volatile
  6218     10D2                     l2641:
  6219                           
  6220                           ;clcd.c: 51:     TRISE1 = 0;
  6221     10D2  1089               	bcf	9,1	;volatile
  6222     10D3                     l2643:
  6223                           
  6224                           ;clcd.c: 53:     init_display_controller();
  6225     10D3  160A  118A  24FD  160A  118A  	fcall	_init_display_controller
  6226     10D8                     l227:
  6227     10D8  0008               	return
  6228     10D9                     __end_of_init_clcd:
  6229                           
  6230                           	psect	text17
  6231     14FD                     __ptext17:	
  6232 ;; *************** function _init_display_controller *****************
  6233 ;; Defined at:
  6234 ;;		line 21 in file "clcd.c"
  6235 ;; Parameters:    Size  Location     Type
  6236 ;;		None
  6237 ;; Auto vars:     Size  Location     Type
  6238 ;;		None
  6239 ;; Return value:  Size  Location     Type
  6240 ;;                  1    wreg      void 
  6241 ;; Registers used:
  6242 ;;		wreg, status,2, status,0, pclath, cstack
  6243 ;; Tracked objects:
  6244 ;;		On entry : 0/0
  6245 ;;		On exit  : 0/0
  6246 ;;		Unchanged: 0/0
  6247 ;; Data sizes:     COMMON   BANK0   BANK1   BANK3   BANK2
  6248 ;;      Params:         0       0       0       0       0
  6249 ;;      Locals:         0       0       0       0       0
  6250 ;;      Temps:          2       0       0       0       0
  6251 ;;      Totals:         2       0       0       0       0
  6252 ;;Total ram usage:        2 bytes
  6253 ;; Hardware stack levels used: 1
  6254 ;; Hardware stack levels required when called: 1
  6255 ;; This function calls:
  6256 ;;		_clcd_write
  6257 ;; This function is called by:
  6258 ;;		_init_clcd
  6259 ;; This function uses a non-reentrant model
  6260 ;;
  6261                           
  6262     14FD                     _init_display_controller:	
  6263                           ;psect for function _init_display_controller
  6264                           
  6265     14FD                     l2559:	
  6266                           ;incstack = 0
  6267                           ; Regs used in _init_display_controller: [wreg+status,2+status,0+pclath+cstack]
  6268                           
  6269                           
  6270                           ;clcd.c: 24:     _delay((unsigned long)((30)*(20000000/4000.0)));
  6271     14FD  30C3               	movlw	195
  6272     14FE  00F5               	movwf	??_init_display_controller+1
  6273     14FF  30CD               	movlw	205
  6274     1500  00F4               	movwf	??_init_display_controller
  6275     1501                     u4157:
  6276     1501  0BF4               	decfsz	??_init_display_controller,f
  6277     1502  2D01               	goto	u4157
  6278     1503  0BF5               	decfsz	??_init_display_controller+1,f
  6279     1504  2D01               	goto	u4157
  6280     1505                     l2561:
  6281                           
  6282                           ;clcd.c: 27:     clcd_write(0x33, 0);
  6283     1505  01F0               	clrf	clcd_write@mode
  6284     1506  3033               	movlw	51
  6285     1507  160A  118A  236D  160A  118A  	fcall	_clcd_write
  6286     150C                     l2563:
  6287                           
  6288                           ;clcd.c: 28:     _delay((unsigned long)((4100)*(20000000/4000000.0)));
  6289     150C  301B               	movlw	27
  6290     150D  00F5               	movwf	??_init_display_controller+1
  6291     150E  309E               	movlw	158
  6292     150F  00F4               	movwf	??_init_display_controller
  6293     1510                     u4167:
  6294     1510  0BF4               	decfsz	??_init_display_controller,f
  6295     1511  2D10               	goto	u4167
  6296     1512  0BF5               	decfsz	??_init_display_controller+1,f
  6297     1513  2D10               	goto	u4167
  6298     1514  0000               	nop
  6299                           
  6300                           ;clcd.c: 29:     clcd_write(0x33, 0);
  6301     1515  01F0               	clrf	clcd_write@mode
  6302     1516  3033               	movlw	51
  6303     1517  160A  118A  236D  160A  118A  	fcall	_clcd_write
  6304     151C                     l2565:
  6305                           
  6306                           ;clcd.c: 30:     _delay((unsigned long)((100)*(20000000/4000000.0)));
  6307     151C  30A6               	movlw	166
  6308     151D  00F4               	movwf	??_init_display_controller
  6309     151E                     u4177:
  6310     151E  0BF4               	decfsz	??_init_display_controller,f
  6311     151F  2D1E               	goto	u4177
  6312     1520  0000               	nop
  6313     1521                     l2567:
  6314                           
  6315                           ;clcd.c: 31:     clcd_write(0x33, 0);
  6316     1521  01F0               	clrf	clcd_write@mode
  6317     1522  3033               	movlw	51
  6318     1523  160A  118A  236D  160A  118A  	fcall	_clcd_write
  6319     1528                     l2569:
  6320                           
  6321                           ;clcd.c: 32:     _delay((unsigned long)((1)*(20000000/4000000.0)));
  6322     1528  2D29               	nop2	;2 cycle nop
  6323     1529  2D2A               	nop2	;2 cycle nop
  6324     152A  0000               	nop
  6325     152B                     l2571:
  6326                           
  6327                           ;clcd.c: 34:     clcd_write(0x02, 0);
  6328     152B  01F0               	clrf	clcd_write@mode
  6329     152C  3002               	movlw	2
  6330     152D  160A  118A  236D  160A  118A  	fcall	_clcd_write
  6331     1532                     l2573:
  6332                           
  6333                           ;clcd.c: 35:     _delay((unsigned long)((100)*(20000000/4000000.0)));
  6334     1532  30A6               	movlw	166
  6335     1533  00F4               	movwf	??_init_display_controller
  6336     1534                     u4187:
  6337     1534  0BF4               	decfsz	??_init_display_controller,f
  6338     1535  2D34               	goto	u4187
  6339     1536  0000               	nop
  6340                           
  6341                           ;clcd.c: 36:     clcd_write(0x28, 0);
  6342     1537  01F0               	clrf	clcd_write@mode
  6343     1538  3028               	movlw	40
  6344     1539  160A  118A  236D  160A  118A  	fcall	_clcd_write
  6345     153E                     l2575:
  6346                           
  6347                           ;clcd.c: 37:     _delay((unsigned long)((100)*(20000000/4000000.0)));
  6348     153E  30A6               	movlw	166
  6349     153F  00F4               	movwf	??_init_display_controller
  6350     1540                     u4197:
  6351     1540  0BF4               	decfsz	??_init_display_controller,f
  6352     1541  2D40               	goto	u4197
  6353     1542  0000               	nop
  6354     1543                     l2577:
  6355                           
  6356                           ;clcd.c: 38:     clcd_write(0x01, 0);
  6357     1543  01F0               	clrf	clcd_write@mode
  6358     1544  3001               	movlw	1
  6359     1545  160A  118A  236D  160A  118A  	fcall	_clcd_write
  6360                           
  6361                           ;clcd.c: 39:     _delay((unsigned long)((500)*(20000000/4000000.0)));
  6362     154A  3004               	movlw	4
  6363     154B  00F5               	movwf	??_init_display_controller+1
  6364     154C  303D               	movlw	61
  6365     154D  00F4               	movwf	??_init_display_controller
  6366     154E                     u4207:
  6367     154E  0BF4               	decfsz	??_init_display_controller,f
  6368     154F  2D4E               	goto	u4207
  6369     1550  0BF5               	decfsz	??_init_display_controller+1,f
  6370     1551  2D4E               	goto	u4207
  6371     1552  2D53               	nop2
  6372     1553                     l2579:
  6373                           
  6374                           ;clcd.c: 40:     clcd_write(0x0C, 0);
  6375     1553  01F0               	clrf	clcd_write@mode
  6376     1554  300C               	movlw	12
  6377     1555  160A  118A  236D  160A  118A  	fcall	_clcd_write
  6378     155A                     l2581:
  6379                           
  6380                           ;clcd.c: 41:     _delay((unsigned long)((100)*(20000000/4000000.0)));
  6381     155A  30A6               	movlw	166
  6382     155B  00F4               	movwf	??_init_display_controller
  6383     155C                     u4217:
  6384     155C  0BF4               	decfsz	??_init_display_controller,f
  6385     155D  2D5C               	goto	u4217
  6386     155E  0000               	nop
  6387     155F                     l224:
  6388     155F  0008               	return
  6389     1560                     __end_of_init_display_controller:
  6390                           
  6391                           	psect	text18
  6392     1095                     __ptext18:	
  6393 ;; *************** function _init_adc *****************
  6394 ;; Defined at:
  6395 ;;		line 4 in file "adc.c"
  6396 ;; Parameters:    Size  Location     Type
  6397 ;;		None
  6398 ;; Auto vars:     Size  Location     Type
  6399 ;;		None
  6400 ;; Return value:  Size  Location     Type
  6401 ;;                  1    wreg      void 
  6402 ;; Registers used:
  6403 ;;		None
  6404 ;; Tracked objects:
  6405 ;;		On entry : 0/0
  6406 ;;		On exit  : 0/0
  6407 ;;		Unchanged: 0/0
  6408 ;; Data sizes:     COMMON   BANK0   BANK1   BANK3   BANK2
  6409 ;;      Params:         0       0       0       0       0
  6410 ;;      Locals:         0       0       0       0       0
  6411 ;;      Temps:          0       0       0       0       0
  6412 ;;      Totals:         0       0       0       0       0
  6413 ;;Total ram usage:        0 bytes
  6414 ;; Hardware stack levels used: 1
  6415 ;; This function calls:
  6416 ;;		Nothing
  6417 ;; This function is called by:
  6418 ;;		_init_config
  6419 ;; This function uses a non-reentrant model
  6420 ;;
  6421                           
  6422     1095                     _init_adc:	
  6423                           ;psect for function _init_adc
  6424                           
  6425     1095                     l2635:	
  6426                           ;incstack = 0
  6427                           ; Regs used in _init_adc: []
  6428                           
  6429                           
  6430                           ;adc.c: 7:     ADFM = 1;
  6431     1095  1683               	bsf	3,5	;RP0=1, select bank1
  6432     1096  1303               	bcf	3,6	;RP1=0, select bank1
  6433     1097  179F               	bsf	31,7	;volatile
  6434                           
  6435                           ;adc.c: 10:     ADON = 1;
  6436     1098  1283               	bcf	3,5	;RP0=0, select bank0
  6437     1099  1303               	bcf	3,6	;RP1=0, select bank0
  6438     109A  141F               	bsf	31,0	;volatile
  6439     109B                     l198:
  6440     109B  0008               	return
  6441     109C                     __end_of_init_adc:
  6442                           
  6443                           	psect	text19
  6444     0BC3                     __ptext19:	
  6445 ;; *************** function _download_log *****************
  6446 ;; Defined at:
  6447 ;;		line 4 in file "download_log.c"
  6448 ;; Parameters:    Size  Location     Type
  6449 ;;		None
  6450 ;; Auto vars:     Size  Location     Type
  6451 ;;  eeprom_addr     1   12[COMMON] unsigned char 
  6452 ;;  i               1   11[COMMON] unsigned char 
  6453 ;;  total_log       1   10[COMMON] unsigned char 
  6454 ;;  j               1    0        unsigned char 
  6455 ;; Return value:  Size  Location     Type
  6456 ;;                  1    wreg      void 
  6457 ;; Registers used:
  6458 ;;		wreg, fsr0l, fsr0h, status,2, status,0, pclath, btemp1, cstack
  6459 ;; Tracked objects:
  6460 ;;		On entry : 0/0
  6461 ;;		On exit  : 0/0
  6462 ;;		Unchanged: 0/0
  6463 ;; Data sizes:     COMMON   BANK0   BANK1   BANK3   BANK2
  6464 ;;      Params:         0       0       0       0       0
  6465 ;;      Locals:         3       0       0       0       0
  6466 ;;      Temps:          3       0       0       0       0
  6467 ;;      Totals:         6       0       0       0       0
  6468 ;;Total ram usage:        6 bytes
  6469 ;; Hardware stack levels used: 1
  6470 ;; Hardware stack levels required when called: 2
  6471 ;; This function calls:
  6472 ;;		___lwdiv
  6473 ;;		_clcd_print
  6474 ;;		_read_external_eeprom
  6475 ;;		_uart_tx_char
  6476 ;;		_uart_tx_string
  6477 ;; This function is called by:
  6478 ;;		_main
  6479 ;; This function uses a non-reentrant model
  6480 ;;
  6481                           
  6482     0BC3                     _download_log:	
  6483                           ;psect for function _download_log
  6484                           
  6485     0BC3                     l3517:	
  6486                           ;incstack = 0
  6487                           ; Regs used in _download_log: [wreg-fsr0h+status,2+status,0+pclath+btemp1+cstack]
  6488                           
  6489                           
  6490                           ;download_log.c: 7:     unsigned char eeprom_addr=0;
  6491     0BC3  01FC               	clrf	download_log@eeprom_addr
  6492     0BC4                     l3519:
  6493                           
  6494                           ;download_log.c: 8:     unsigned char i,j;;download_log.c: 11:     total_log=address/10;
  6495     0BC4  300A               	movlw	10
  6496     0BC5  00F0               	movwf	___lwdiv@divisor
  6497     0BC6  3000               	movlw	0
  6498     0BC7  00F1               	movwf	___lwdiv@divisor+1
  6499     0BC8  1283               	bcf	3,5	;RP0=0, select bank0
  6500     0BC9  1303               	bcf	3,6	;RP1=0, select bank0
  6501     0BCA  0852               	movf	_address+1,w
  6502     0BCB  00F3               	movwf	___lwdiv@dividend+1
  6503     0BCC  0851               	movf	_address,w
  6504     0BCD  00F2               	movwf	___lwdiv@dividend
  6505     0BCE  160A  118A  2412  120A  158A  	fcall	___lwdiv
  6506     0BD3  0870               	movf	?___lwdiv,w
  6507     0BD4  00FA               	movwf	download_log@total_log
  6508     0BD5                     l3521:
  6509                           
  6510                           ;download_log.c: 12:     if(total_log==0)
  6511     0BD5  087A               	movf	download_log@total_log,w
  6512     0BD6  1D03               	btfss	3,2
  6513     0BD7  2BD9               	goto	u3651
  6514     0BD8  2BDA               	goto	u3650
  6515     0BD9                     u3651:
  6516     0BD9  2BE4               	goto	l3527
  6517     0BDA                     u3650:
  6518     0BDA                     l3523:
  6519                           
  6520                           ;download_log.c: 13:     {;download_log.c: 14:         uart_tx_string("-------NO DATA LO
      +                          GS FOUND-------\r\n");
  6521     0BDA  3000               	movlw	low (STR_41| (0+32768))
  6522     0BDB  00F5               	movwf	uart_tx_string@s
  6523     0BDC  3088               	movlw	high (STR_41| (0+32768))
  6524     0BDD  00F6               	movwf	uart_tx_string@s+1
  6525     0BDE  160A  118A  2206  120A  158A  	fcall	_uart_tx_string
  6526     0BE3  2CE3               	goto	l560
  6527     0BE4                     l3527:
  6528                           
  6529                           ;download_log.c: 17:     uart_tx_string("-----------DATA LOG---------\r\n");
  6530     0BE4  3042               	movlw	low (STR_42| (0+32768))
  6531     0BE5  00F5               	movwf	uart_tx_string@s
  6532     0BE6  3088               	movlw	high (STR_42| (0+32768))
  6533     0BE7  00F6               	movwf	uart_tx_string@s+1
  6534     0BE8  160A  118A  2206  120A  158A  	fcall	_uart_tx_string
  6535                           
  6536                           ;download_log.c: 18:     uart_tx_string("\r\n");
  6537     0BED  303F               	movlw	low ((STR_45+28)| (0+32768))
  6538     0BEE  00F5               	movwf	uart_tx_string@s
  6539     0BEF  3088               	movlw	high ((STR_45+28)| (0+32768))
  6540     0BF0  00F6               	movwf	uart_tx_string@s+1
  6541     0BF1  160A  118A  2206  120A  158A  	fcall	_uart_tx_string
  6542                           
  6543                           ;download_log.c: 19:     uart_tx_string("NO.   TIME     EVENT  SPEED\r\n");
  6544     0BF6  3061               	movlw	low (STR_44| (0+32768))
  6545     0BF7  00F5               	movwf	uart_tx_string@s
  6546     0BF8  3088               	movlw	high (STR_44| (0+32768))
  6547     0BF9  00F6               	movwf	uart_tx_string@s+1
  6548     0BFA  160A  118A  2206  120A  158A  	fcall	_uart_tx_string
  6549                           
  6550                           ;download_log.c: 20:     uart_tx_string("----------------------------\r\n");
  6551     0BFF  3023               	movlw	low (STR_45| (0+32768))
  6552     0C00  00F5               	movwf	uart_tx_string@s
  6553     0C01  3088               	movlw	high (STR_45| (0+32768))
  6554     0C02  00F6               	movwf	uart_tx_string@s+1
  6555     0C03  160A  118A  2206  120A  158A  	fcall	_uart_tx_string
  6556     0C08                     l3529:
  6557                           
  6558                           ;download_log.c: 21:     for(i=0;i<total_log;i++)
  6559     0C08  01FB               	clrf	download_log@i
  6560     0C09  2CC5               	goto	l3581
  6561     0C0A                     l3531:
  6562                           
  6563                           ;download_log.c: 22:     {;download_log.c: 24:         uart_tx_char('0' + (i + 1));
  6564     0C0A  087B               	movf	download_log@i,w
  6565     0C0B  3E31               	addlw	49
  6566     0C0C  160A  118A  20AE  120A  158A  	fcall	_uart_tx_char
  6567     0C11                     l3533:
  6568                           
  6569                           ;download_log.c: 25:         uart_tx_string(".  ");
  6570     0C11  30B6               	movlw	low (STR_46| (0+32768))
  6571     0C12  00F5               	movwf	uart_tx_string@s
  6572     0C13  3089               	movlw	high (STR_46| (0+32768))
  6573     0C14  00F6               	movwf	uart_tx_string@s+1
  6574     0C15  160A  118A  2206  120A  158A  	fcall	_uart_tx_string
  6575     0C1A                     l3535:
  6576                           
  6577                           ;download_log.c: 28:         uart_tx_char(read_external_eeprom(eeprom_addr++));
  6578     0C1A  087C               	movf	download_log@eeprom_addr,w
  6579     0C1B  160A  118A  2280  120A  158A  	fcall	_read_external_eeprom
  6580     0C20  160A  118A  20AE  120A  158A  	fcall	_uart_tx_char
  6581     0C25                     l3537:
  6582     0C25  3001               	movlw	1
  6583     0C26  07FC               	addwf	download_log@eeprom_addr,f
  6584     0C27                     l3539:
  6585                           
  6586                           ;download_log.c: 29:         uart_tx_char(read_external_eeprom(eeprom_addr++));
  6587     0C27  087C               	movf	download_log@eeprom_addr,w
  6588     0C28  160A  118A  2280  120A  158A  	fcall	_read_external_eeprom
  6589     0C2D  160A  118A  20AE  120A  158A  	fcall	_uart_tx_char
  6590     0C32                     l3541:
  6591     0C32  3001               	movlw	1
  6592     0C33  07FC               	addwf	download_log@eeprom_addr,f
  6593     0C34                     l3543:
  6594                           
  6595                           ;download_log.c: 30:         uart_tx_char(':');
  6596     0C34  303A               	movlw	58
  6597     0C35  160A  118A  20AE  120A  158A  	fcall	_uart_tx_char
  6598     0C3A                     l3545:
  6599                           
  6600                           ;download_log.c: 33:         uart_tx_char(read_external_eeprom(eeprom_addr++));
  6601     0C3A  087C               	movf	download_log@eeprom_addr,w
  6602     0C3B  160A  118A  2280  120A  158A  	fcall	_read_external_eeprom
  6603     0C40  160A  118A  20AE  120A  158A  	fcall	_uart_tx_char
  6604     0C45                     l3547:
  6605     0C45  3001               	movlw	1
  6606     0C46  07FC               	addwf	download_log@eeprom_addr,f
  6607     0C47                     l3549:
  6608                           
  6609                           ;download_log.c: 34:         uart_tx_char(read_external_eeprom(eeprom_addr++));
  6610     0C47  087C               	movf	download_log@eeprom_addr,w
  6611     0C48  160A  118A  2280  120A  158A  	fcall	_read_external_eeprom
  6612     0C4D  160A  118A  20AE  120A  158A  	fcall	_uart_tx_char
  6613     0C52                     l3551:
  6614     0C52  3001               	movlw	1
  6615     0C53  07FC               	addwf	download_log@eeprom_addr,f
  6616     0C54                     l3553:
  6617                           
  6618                           ;download_log.c: 35:         uart_tx_char(':');
  6619     0C54  303A               	movlw	58
  6620     0C55  160A  118A  20AE  120A  158A  	fcall	_uart_tx_char
  6621     0C5A                     l3555:
  6622                           
  6623                           ;download_log.c: 38:         uart_tx_char(read_external_eeprom(eeprom_addr++));
  6624     0C5A  087C               	movf	download_log@eeprom_addr,w
  6625     0C5B  160A  118A  2280  120A  158A  	fcall	_read_external_eeprom
  6626     0C60  160A  118A  20AE  120A  158A  	fcall	_uart_tx_char
  6627     0C65                     l3557:
  6628     0C65  3001               	movlw	1
  6629     0C66  07FC               	addwf	download_log@eeprom_addr,f
  6630     0C67                     l3559:
  6631                           
  6632                           ;download_log.c: 39:         uart_tx_char(read_external_eeprom(eeprom_addr++));
  6633     0C67  087C               	movf	download_log@eeprom_addr,w
  6634     0C68  160A  118A  2280  120A  158A  	fcall	_read_external_eeprom
  6635     0C6D  160A  118A  20AE  120A  158A  	fcall	_uart_tx_char
  6636     0C72                     l3561:
  6637     0C72  3001               	movlw	1
  6638     0C73  07FC               	addwf	download_log@eeprom_addr,f
  6639     0C74                     l3563:
  6640                           
  6641                           ;download_log.c: 40:         uart_tx_string("   ");
  6642     0C74  30AD               	movlw	low ((STR_48+3)| (0+32768))
  6643     0C75  00F5               	movwf	uart_tx_string@s
  6644     0C76  3089               	movlw	high ((STR_48+3)| (0+32768))
  6645     0C77  00F6               	movwf	uart_tx_string@s+1
  6646     0C78  160A  118A  2206  120A  158A  	fcall	_uart_tx_string
  6647                           
  6648                           ;download_log.c: 43:         uart_tx_char(read_external_eeprom(eeprom_addr++));
  6649     0C7D  087C               	movf	download_log@eeprom_addr,w
  6650     0C7E  160A  118A  2280  120A  158A  	fcall	_read_external_eeprom
  6651     0C83  160A  118A  20AE  120A  158A  	fcall	_uart_tx_char
  6652     0C88                     l3565:
  6653     0C88  3001               	movlw	1
  6654     0C89  07FC               	addwf	download_log@eeprom_addr,f
  6655     0C8A                     l3567:
  6656                           
  6657                           ;download_log.c: 44:         uart_tx_char(read_external_eeprom(eeprom_addr++));
  6658     0C8A  087C               	movf	download_log@eeprom_addr,w
  6659     0C8B  160A  118A  2280  120A  158A  	fcall	_read_external_eeprom
  6660     0C90  160A  118A  20AE  120A  158A  	fcall	_uart_tx_char
  6661     0C95  3001               	movlw	1
  6662     0C96  07FC               	addwf	download_log@eeprom_addr,f
  6663     0C97                     l3569:
  6664                           
  6665                           ;download_log.c: 45:         uart_tx_string("      ");
  6666     0C97  30AA               	movlw	low (STR_48| (0+32768))
  6667     0C98  00F5               	movwf	uart_tx_string@s
  6668     0C99  3089               	movlw	high (STR_48| (0+32768))
  6669     0C9A  00F6               	movwf	uart_tx_string@s+1
  6670     0C9B  160A  118A  2206  120A  158A  	fcall	_uart_tx_string
  6671     0CA0                     l3571:
  6672                           
  6673                           ;download_log.c: 48:         uart_tx_char(read_external_eeprom(eeprom_addr++));
  6674     0CA0  087C               	movf	download_log@eeprom_addr,w
  6675     0CA1  160A  118A  2280  120A  158A  	fcall	_read_external_eeprom
  6676     0CA6  160A  118A  20AE  120A  158A  	fcall	_uart_tx_char
  6677     0CAB                     l3573:
  6678     0CAB  3001               	movlw	1
  6679     0CAC  07FC               	addwf	download_log@eeprom_addr,f
  6680     0CAD                     l3575:
  6681                           
  6682                           ;download_log.c: 49:         uart_tx_char(read_external_eeprom(eeprom_addr++));
  6683     0CAD  087C               	movf	download_log@eeprom_addr,w
  6684     0CAE  160A  118A  2280  120A  158A  	fcall	_read_external_eeprom
  6685     0CB3  160A  118A  20AE  120A  158A  	fcall	_uart_tx_char
  6686     0CB8                     l3577:
  6687     0CB8  3001               	movlw	1
  6688     0CB9  07FC               	addwf	download_log@eeprom_addr,f
  6689     0CBA                     l3579:
  6690                           
  6691                           ;download_log.c: 51:         uart_tx_string("\r\n");
  6692     0CBA  303F               	movlw	low ((STR_45+28)| (0+32768))
  6693     0CBB  00F5               	movwf	uart_tx_string@s
  6694     0CBC  3088               	movlw	high ((STR_45+28)| (0+32768))
  6695     0CBD  00F6               	movwf	uart_tx_string@s+1
  6696     0CBE  160A  118A  2206  120A  158A  	fcall	_uart_tx_string
  6697                           
  6698                           ;download_log.c: 53:     }
  6699     0CC3  3001               	movlw	1
  6700     0CC4  07FB               	addwf	download_log@i,f
  6701     0CC5                     l3581:
  6702     0CC5  087A               	movf	download_log@total_log,w
  6703     0CC6  027B               	subwf	download_log@i,w
  6704     0CC7  1C03               	skipc
  6705     0CC8  2CCA               	goto	u3661
  6706     0CC9  2CCB               	goto	u3660
  6707     0CCA                     u3661:
  6708     0CCA  2C0A               	goto	l3531
  6709     0CCB                     u3660:
  6710     0CCB                     l3583:
  6711                           
  6712                           ;download_log.c: 54:      clcd_print(" Logs Downloaded", (0x80 + 0));
  6713     0CCB  307F               	movlw	low (STR_50| (0+32768))
  6714     0CCC  00F4               	movwf	clcd_print@str
  6715     0CCD  3088               	movlw	high (STR_50| (0+32768))
  6716     0CCE  00F5               	movwf	clcd_print@str+1
  6717     0CCF  3080               	movlw	128
  6718     0CD0  00F6               	movwf	clcd_print@addr
  6719     0CD1  160A  118A  22AB  120A  158A  	fcall	_clcd_print
  6720     0CD6                     l3585:
  6721                           
  6722                           ;download_log.c: 55:      _delay((unsigned long)((3000)*(20000000/4000.0)));
  6723     0CD6  304D               	movlw	77
  6724     0CD7  00F9               	movwf	??_download_log+2
  6725     0CD8  3019               	movlw	25
  6726     0CD9  00F8               	movwf	??_download_log+1
  6727     0CDA  304F               	movlw	79
  6728     0CDB  00F7               	movwf	??_download_log
  6729     0CDC                     u4227:
  6730     0CDC  0BF7               	decfsz	??_download_log,f
  6731     0CDD  2CDC               	goto	u4227
  6732     0CDE  0BF8               	decfsz	??_download_log+1,f
  6733     0CDF  2CDC               	goto	u4227
  6734     0CE0  0BF9               	decfsz	??_download_log+2,f
  6735     0CE1  2CDC               	goto	u4227
  6736     0CE2  2CE3               	nop2
  6737     0CE3                     l560:
  6738     0CE3  0008               	return
  6739     0CE4                     __end_of_download_log:
  6740                           
  6741                           	psect	text20
  6742     1206                     __ptext20:	
  6743 ;; *************** function _uart_tx_string *****************
  6744 ;; Defined at:
  6745 ;;		line 27 in file "uart.c"
  6746 ;; Parameters:    Size  Location     Type
  6747 ;;  s               2    5[COMMON] PTR unsigned char 
  6748 ;;		 -> STR_49(3), STR_48(7), STR_47(4), STR_46(4), 
  6749 ;;		 -> STR_45(31), STR_44(30), STR_43(3), STR_42(31), 
  6750 ;;		 -> STR_41(35), 
  6751 ;; Auto vars:     Size  Location     Type
  6752 ;;		None
  6753 ;; Return value:  Size  Location     Type
  6754 ;;                  1    wreg      void 
  6755 ;; Registers used:
  6756 ;;		wreg, fsr0l, fsr0h, status,2, status,0, pclath, btemp1, cstack
  6757 ;; Tracked objects:
  6758 ;;		On entry : 0/0
  6759 ;;		On exit  : 0/0
  6760 ;;		Unchanged: 0/0
  6761 ;; Data sizes:     COMMON   BANK0   BANK1   BANK3   BANK2
  6762 ;;      Params:         2       0       0       0       0
  6763 ;;      Locals:         0       0       0       0       0
  6764 ;;      Temps:          0       0       0       0       0
  6765 ;;      Totals:         2       0       0       0       0
  6766 ;;Total ram usage:        2 bytes
  6767 ;; Hardware stack levels used: 1
  6768 ;; Hardware stack levels required when called: 1
  6769 ;; This function calls:
  6770 ;;		_uart_tx_char
  6771 ;; This function is called by:
  6772 ;;		_download_log
  6773 ;; This function uses a non-reentrant model
  6774 ;;
  6775                           
  6776     1206                     _uart_tx_string:	
  6777                           ;psect for function _uart_tx_string
  6778                           
  6779     1206                     l2747:	
  6780                           ;incstack = 0
  6781                           ; Regs used in _uart_tx_string: [wreg-fsr0h+status,2+status,0+pclath+btemp1+cstack]
  6782                           
  6783                           
  6784                           ;uart.c: 27: void uart_tx_string(unsigned char *s);uart.c: 28: {;uart.c: 29:     while(*
      +                          s!='\0')
  6785     1206  2A1B               	goto	l2753
  6786     1207                     l2749:
  6787                           
  6788                           ;uart.c: 30:     {;uart.c: 31:         uart_tx_char(*s++);
  6789     1207  0876               	movf	uart_tx_string@s+1,w
  6790     1208  00FF               	movwf	btemp1
  6791     1209  0875               	movf	uart_tx_string@s,w
  6792     120A  0084               	movwf	4
  6793     120B  160A  118A  2000  160A  118A  	fcall	stringtab
  6794     1210  160A  118A  20AE  160A  118A  	fcall	_uart_tx_char
  6795     1215                     l2751:
  6796     1215  3001               	movlw	1
  6797     1216  07F5               	addwf	uart_tx_string@s,f
  6798     1217  1803               	skipnc
  6799     1218  0AF6               	incf	uart_tx_string@s+1,f
  6800     1219  3000               	movlw	0
  6801     121A  07F6               	addwf	uart_tx_string@s+1,f
  6802     121B                     l2753:
  6803                           
  6804                           ;uart.c: 29:     while(*s!='\0')
  6805     121B  0876               	movf	uart_tx_string@s+1,w
  6806     121C  1283               	bcf	3,5	;RP0=0, select bank0
  6807     121D  1303               	bcf	3,6	;RP1=0, select bank0
  6808     121E  00FF               	movwf	btemp1
  6809     121F  0875               	movf	uart_tx_string@s,w
  6810     1220  0084               	movwf	4
  6811     1221  160A  118A  2000  160A  118A  	fcall	stringtab
  6812     1226  3A00               	xorlw	0
  6813     1227  1D03               	skipz
  6814     1228  2A2A               	goto	u2381
  6815     1229  2A2B               	goto	u2380
  6816     122A                     u2381:
  6817     122A  2A07               	goto	l2749
  6818     122B                     u2380:
  6819     122B                     l544:
  6820     122B  0008               	return
  6821     122C                     __end_of_uart_tx_string:
  6822                           
  6823                           	psect	text21
  6824     10AE                     __ptext21:	
  6825 ;; *************** function _uart_tx_char *****************
  6826 ;; Defined at:
  6827 ;;		line 22 in file "uart.c"
  6828 ;; Parameters:    Size  Location     Type
  6829 ;;  byte            1    wreg     unsigned char 
  6830 ;; Auto vars:     Size  Location     Type
  6831 ;;  byte            1    4[COMMON] unsigned char 
  6832 ;; Return value:  Size  Location     Type
  6833 ;;                  1    wreg      void 
  6834 ;; Registers used:
  6835 ;;		wreg
  6836 ;; Tracked objects:
  6837 ;;		On entry : 0/0
  6838 ;;		On exit  : 0/0
  6839 ;;		Unchanged: 0/0
  6840 ;; Data sizes:     COMMON   BANK0   BANK1   BANK3   BANK2
  6841 ;;      Params:         0       0       0       0       0
  6842 ;;      Locals:         1       0       0       0       0
  6843 ;;      Temps:          0       0       0       0       0
  6844 ;;      Totals:         1       0       0       0       0
  6845 ;;Total ram usage:        1 bytes
  6846 ;; Hardware stack levels used: 1
  6847 ;; This function calls:
  6848 ;;		Nothing
  6849 ;; This function is called by:
  6850 ;;		_uart_tx_string
  6851 ;;		_download_log
  6852 ;; This function uses a non-reentrant model
  6853 ;;
  6854                           
  6855     10AE                     _uart_tx_char:	
  6856                           ;psect for function _uart_tx_char
  6857                           
  6858                           
  6859                           ;incstack = 0
  6860                           ; Regs used in _uart_tx_char: [wreg]
  6861                           ;uart_tx_char@byte stored from wreg
  6862     10AE  00F4               	movwf	uart_tx_char@byte
  6863     10AF                     l2583:
  6864     10AF                     l535:	
  6865                           ;uart.c: 22: void uart_tx_char(unsigned char byte);uart.c: 23: {;uart.c: 24:     while(T
      +                          XIF!=1);
  6866                           
  6867     10AF  1283               	bcf	3,5	;RP0=0, select bank0
  6868     10B0  1303               	bcf	3,6	;RP1=0, select bank0
  6869     10B1  1E0C               	btfss	12,4	;volatile
  6870     10B2  28B4               	goto	u2131
  6871     10B3  28B5               	goto	u2130
  6872     10B4                     u2131:
  6873     10B4  28AF               	goto	l535
  6874     10B5                     u2130:
  6875     10B5                     l2585:
  6876                           
  6877                           ;uart.c: 25:     TXREG=byte;
  6878     10B5  0874               	movf	uart_tx_char@byte,w
  6879     10B6  0099               	movwf	25	;volatile
  6880     10B7                     l538:
  6881     10B7  0008               	return
  6882     10B8                     __end_of_uart_tx_char:
  6883                           
  6884                           	psect	text22
  6885     1280                     __ptext22:	
  6886 ;; *************** function _read_external_eeprom *****************
  6887 ;; Defined at:
  6888 ;;		line 14 in file "external_eeprom.c"
  6889 ;; Parameters:    Size  Location     Type
  6890 ;;  address         1    wreg     unsigned char 
  6891 ;; Auto vars:     Size  Location     Type
  6892 ;;  address         1    2[COMMON] unsigned char 
  6893 ;;  data            1    3[COMMON] unsigned char 
  6894 ;; Return value:  Size  Location     Type
  6895 ;;                  1    wreg      unsigned char 
  6896 ;; Registers used:
  6897 ;;		wreg, status,2, status,0, pclath, cstack
  6898 ;; Tracked objects:
  6899 ;;		On entry : 0/0
  6900 ;;		On exit  : 0/0
  6901 ;;		Unchanged: 0/0
  6902 ;; Data sizes:     COMMON   BANK0   BANK1   BANK3   BANK2
  6903 ;;      Params:         0       0       0       0       0
  6904 ;;      Locals:         2       0       0       0       0
  6905 ;;      Temps:          0       0       0       0       0
  6906 ;;      Totals:         2       0       0       0       0
  6907 ;;Total ram usage:        2 bytes
  6908 ;; Hardware stack levels used: 1
  6909 ;; This function calls:
  6910 ;;		_i2c_read
  6911 ;;		_i2c_rep_start
  6912 ;;		_i2c_start
  6913 ;;		_i2c_stop
  6914 ;;		_i2c_write
  6915 ;; This function is called by:
  6916 ;;		_view_log
  6917 ;;		_download_log
  6918 ;; This function uses a non-reentrant model
  6919 ;;
  6920                           
  6921     1280                     _read_external_eeprom:	
  6922                           ;psect for function _read_external_eeprom
  6923                           
  6924                           
  6925                           ;incstack = 0
  6926                           ; Regs used in _read_external_eeprom: [wreg+status,2+status,0+pclath+cstack]
  6927                           ;read_external_eeprom@address stored from wreg
  6928     1280  00F2               	movwf	read_external_eeprom@address
  6929     1281                     l2677:
  6930                           
  6931                           ;external_eeprom.c: 14: unsigned char read_external_eeprom(unsigned char address);extern
      +                          al_eeprom.c: 15: {;external_eeprom.c: 16:     unsigned char data;;external_eeprom.c: 18:
      +                               i2c_start();
  6932     1281  160A  118A  209C  160A  118A  	fcall	_i2c_start
  6933                           
  6934                           ;external_eeprom.c: 19:     i2c_write(0xA0);
  6935     1286  30A0               	movlw	160
  6936     1287  160A  118A  20C3  160A  118A  	fcall	_i2c_write
  6937                           
  6938                           ;external_eeprom.c: 20:     i2c_write(address);
  6939     128C  0872               	movf	read_external_eeprom@address,w
  6940     128D  160A  118A  20C3  160A  118A  	fcall	_i2c_write
  6941                           
  6942                           ;external_eeprom.c: 21:     i2c_rep_start();
  6943     1292  160A  118A  20B8  160A  118A  	fcall	_i2c_rep_start
  6944                           
  6945                           ;external_eeprom.c: 22:     i2c_write(0xA1);
  6946     1297  30A1               	movlw	161
  6947     1298  160A  118A  20C3  160A  118A  	fcall	_i2c_write
  6948                           
  6949                           ;external_eeprom.c: 23:     data = i2c_read(0);
  6950     129D  3000               	movlw	0
  6951     129E  160A  118A  219C  160A  118A  	fcall	_i2c_read
  6952     12A3  00F3               	movwf	read_external_eeprom@data
  6953                           
  6954                           ;external_eeprom.c: 24:     i2c_stop();
  6955     12A4  160A  118A  20A5  160A  118A  	fcall	_i2c_stop
  6956     12A9                     l2679:
  6957                           
  6958                           ;external_eeprom.c: 26:     return data;
  6959     12A9  0873               	movf	read_external_eeprom@data,w
  6960     12AA                     l181:
  6961     12AA  0008               	return
  6962     12AB                     __end_of_read_external_eeprom:
  6963                           
  6964                           	psect	text23
  6965     0AA9                     __ptext23:	
  6966 ;; *************** function _dashboard *****************
  6967 ;; Defined at:
  6968 ;;		line 26 in file "dashboard.c"
  6969 ;; Parameters:    Size  Location     Type
  6970 ;;  key             1    wreg     unsigned char 
  6971 ;; Auto vars:     Size  Location     Type
  6972 ;;  key             1   46[BANK0 ] unsigned char 
  6973 ;; Return value:  Size  Location     Type
  6974 ;;                  1    wreg      void 
  6975 ;; Registers used:
  6976 ;;		wreg, fsr0l, fsr0h, status,2, status,0, pclath, btemp1, cstack
  6977 ;; Tracked objects:
  6978 ;;		On entry : 0/0
  6979 ;;		On exit  : 0/0
  6980 ;;		Unchanged: 0/0
  6981 ;; Data sizes:     COMMON   BANK0   BANK1   BANK3   BANK2
  6982 ;;      Params:         0       0       0       0       0
  6983 ;;      Locals:         0       1       0       0       0
  6984 ;;      Temps:          0       4       0       0       0
  6985 ;;      Totals:         0       5       0       0       0
  6986 ;;Total ram usage:        5 bytes
  6987 ;; Hardware stack levels used: 1
  6988 ;; Hardware stack levels required when called: 5
  6989 ;; This function calls:
  6990 ;;		___fldiv
  6991 ;;		___fltol
  6992 ;;		___lwdiv
  6993 ;;		___lwmod
  6994 ;;		___xxtofl
  6995 ;;		_clcd_print
  6996 ;;		_display_time
  6997 ;;		_get_time
  6998 ;;		_read_adc
  6999 ;;		_store_event
  7000 ;; This function is called by:
  7001 ;;		_main
  7002 ;; This function uses a non-reentrant model
  7003 ;;
  7004                           
  7005     0AA9                     _dashboard:	
  7006                           ;psect for function _dashboard
  7007                           
  7008                           
  7009                           ;incstack = 0
  7010                           ; Regs used in _dashboard: [wreg-fsr0h+status,2+status,0+pclath+btemp1+cstack]
  7011                           ;dashboard@key stored from wreg
  7012     0AA9  1283               	bcf	3,5	;RP0=0, select bank0
  7013     0AAA  1303               	bcf	3,6	;RP1=0, select bank0
  7014     0AAB  00CE               	movwf	dashboard@key
  7015     0AAC                     l3145:
  7016                           
  7017                           ;dashboard.c: 28:         clcd_print(" TIME     EV  SP", (0x80 + 0));
  7018     0AAC  3090               	movlw	low (STR_15| (0+32768))
  7019     0AAD  00F4               	movwf	clcd_print@str
  7020     0AAE  3088               	movlw	high (STR_15| (0+32768))
  7021     0AAF  00F5               	movwf	clcd_print@str+1
  7022     0AB0  3080               	movlw	128
  7023     0AB1  00F6               	movwf	clcd_print@addr
  7024     0AB2  160A  118A  22AB  120A  158A  	fcall	_clcd_print
  7025     0AB7                     l3147:
  7026                           
  7027                           ;dashboard.c: 31:         get_time(clock_reg);
  7028     0AB7  3066               	movlw	(low (_clock_reg| 0))& (0+255)
  7029     0AB8  00F4               	movwf	get_time@clock_reg
  7030     0AB9  160A  118A  217C  120A  158A  	fcall	_get_time
  7031     0ABE                     l3149:
  7032                           
  7033                           ;dashboard.c: 32:         display_time(clock_reg);
  7034     0ABE  3066               	movlw	(low (_clock_reg| 0))& (0+255)
  7035     0ABF  00F7               	movwf	display_time@clock_reg
  7036     0AC0  160A  118A  2454  120A  158A  	fcall	_display_time
  7037     0AC5                     l3151:
  7038                           
  7039                           ;dashboard.c: 35:         if (key==0x3E)
  7040     0AC5  303E               	movlw	62
  7041     0AC6  1283               	bcf	3,5	;RP0=0, select bank0
  7042     0AC7  1303               	bcf	3,6	;RP1=0, select bank0
  7043     0AC8  064E               	xorwf	dashboard@key,w
  7044     0AC9  1D03               	btfss	3,2
  7045     0ACA  2ACC               	goto	u3301
  7046     0ACB  2ACD               	goto	u3300
  7047     0ACC                     u3301:
  7048     0ACC  2AD2               	goto	l3155
  7049     0ACD                     u3300:
  7050     0ACD                     l3153:
  7051                           
  7052                           ;dashboard.c: 36:         {;dashboard.c: 37:             pos=7;
  7053     0ACD  3007               	movlw	7
  7054     0ACE  00D5               	movwf	_pos
  7055     0ACF  3000               	movlw	0
  7056     0AD0  00D6               	movwf	_pos+1
  7057                           
  7058                           ;dashboard.c: 38:         }
  7059     0AD1  2B1D               	goto	l3175
  7060     0AD2                     l3155:
  7061     0AD2  303D               	movlw	61
  7062     0AD3  064E               	xorwf	dashboard@key,w
  7063     0AD4  1D03               	btfss	3,2
  7064     0AD5  2AD7               	goto	u3311
  7065     0AD6  2AD8               	goto	u3310
  7066     0AD7                     u3311:
  7067     0AD7  2AFA               	goto	l3165
  7068     0AD8                     u3310:
  7069     0AD8                     l3157:
  7070                           
  7071                           ;dashboard.c: 40:         {;dashboard.c: 41:             if(pos==7)
  7072     0AD8  3007               	movlw	7
  7073     0AD9  0655               	xorwf	_pos,w
  7074     0ADA  0456               	iorwf	_pos+1,w
  7075     0ADB  1D03               	btfss	3,2
  7076     0ADC  2ADE               	goto	u3321
  7077     0ADD  2ADF               	goto	u3320
  7078     0ADE                     u3321:
  7079     0ADE  2AE4               	goto	l3161
  7080     0ADF                     u3320:
  7081     0ADF                     l3159:
  7082                           
  7083                           ;dashboard.c: 42:             {;dashboard.c: 43:                 pos=1;
  7084     0ADF  3001               	movlw	1
  7085     0AE0  00D5               	movwf	_pos
  7086     0AE1  3000               	movlw	0
  7087     0AE2  00D6               	movwf	_pos+1
  7088                           
  7089                           ;dashboard.c: 44:             }
  7090     0AE3  2B1D               	goto	l3175
  7091     0AE4                     l3161:
  7092     0AE4  0856               	movf	_pos+1,w
  7093     0AE5  3A80               	xorlw	128
  7094     0AE6  00FF               	movwf	btemp1
  7095     0AE7  3080               	movlw	128
  7096     0AE8  027F               	subwf	btemp1,w
  7097     0AE9  1D03               	skipz
  7098     0AEA  2AED               	goto	u3335
  7099     0AEB  3006               	movlw	6
  7100     0AEC  0255               	subwf	_pos,w
  7101     0AED                     u3335:
  7102     0AED  1803               	skipnc
  7103     0AEE  2AF0               	goto	u3331
  7104     0AEF  2AF1               	goto	u3330
  7105     0AF0                     u3331:
  7106     0AF0  2B1D               	goto	l3175
  7107     0AF1                     u3330:
  7108     0AF1                     l3163:
  7109                           
  7110                           ;dashboard.c: 46:             {;dashboard.c: 47:                 pos++;
  7111     0AF1  3001               	movlw	1
  7112     0AF2  1283               	bcf	3,5	;RP0=0, select bank0
  7113     0AF3  1303               	bcf	3,6	;RP1=0, select bank0
  7114     0AF4  07D5               	addwf	_pos,f
  7115     0AF5  1803               	skipnc
  7116     0AF6  0AD6               	incf	_pos+1,f
  7117     0AF7  3000               	movlw	0
  7118     0AF8  07D6               	addwf	_pos+1,f
  7119     0AF9  2B1D               	goto	l3175
  7120     0AFA                     l3165:
  7121     0AFA  303B               	movlw	59
  7122     0AFB  064E               	xorwf	dashboard@key,w
  7123     0AFC  1D03               	btfss	3,2
  7124     0AFD  2AFF               	goto	u3341
  7125     0AFE  2B00               	goto	u3340
  7126     0AFF                     u3341:
  7127     0AFF  2B1D               	goto	l3175
  7128     0B00                     u3340:
  7129     0B00                     l3167:
  7130                           
  7131                           ;dashboard.c: 51:         {;dashboard.c: 52:             if(pos==7)
  7132     0B00  3007               	movlw	7
  7133     0B01  0655               	xorwf	_pos,w
  7134     0B02  0456               	iorwf	_pos+1,w
  7135     0B03  1D03               	btfss	3,2
  7136     0B04  2B06               	goto	u3351
  7137     0B05  2B07               	goto	u3350
  7138     0B06                     u3351:
  7139     0B06  2B08               	goto	l3171
  7140     0B07                     u3350:
  7141     0B07  2ADF               	goto	l3159
  7142     0B08                     l3171:
  7143     0B08  0856               	movf	_pos+1,w
  7144     0B09  3A80               	xorlw	128
  7145     0B0A  00FF               	movwf	btemp1
  7146     0B0B  3080               	movlw	128
  7147     0B0C  027F               	subwf	btemp1,w
  7148     0B0D  1D03               	skipz
  7149     0B0E  2B11               	goto	u3365
  7150     0B0F  3002               	movlw	2
  7151     0B10  0255               	subwf	_pos,w
  7152     0B11                     u3365:
  7153     0B11  1C03               	skipc
  7154     0B12  2B14               	goto	u3361
  7155     0B13  2B15               	goto	u3360
  7156     0B14                     u3361:
  7157     0B14  2B1D               	goto	l3175
  7158     0B15                     u3360:
  7159     0B15                     l3173:
  7160                           
  7161                           ;dashboard.c: 57:             {;dashboard.c: 58:                 pos--;
  7162     0B15  30FF               	movlw	255
  7163     0B16  1283               	bcf	3,5	;RP0=0, select bank0
  7164     0B17  1303               	bcf	3,6	;RP1=0, select bank0
  7165     0B18  07D5               	addwf	_pos,f
  7166     0B19  1803               	skipnc
  7167     0B1A  0AD6               	incf	_pos+1,f
  7168     0B1B  30FF               	movlw	255
  7169     0B1C  07D6               	addwf	_pos+1,f
  7170     0B1D                     l3175:
  7171                           
  7172                           ;dashboard.c: 62:         clcd_print(event[pos],(0xC0 + 10));
  7173     0B1D  1283               	bcf	3,5	;RP0=0, select bank0
  7174     0B1E  1303               	bcf	3,6	;RP1=0, select bank0
  7175     0B1F  0855               	movf	_pos,w
  7176     0B20  00CA               	movwf	??_dashboard
  7177     0B21  074A               	addwf	??_dashboard,w
  7178     0B22  3EA0               	addlw	(low (_event| 0))& (0+255)
  7179     0B23  0084               	movwf	4
  7180     0B24  1383               	bcf	3,7	;select IRP bank1
  7181     0B25  0800               	movf	0,w
  7182     0B26  00F4               	movwf	clcd_print@str
  7183     0B27  0A84               	incf	4,f
  7184     0B28  0800               	movf	0,w
  7185     0B29  0384               	decf	4,f
  7186     0B2A  00F5               	movwf	clcd_print@str+1
  7187     0B2B  30CA               	movlw	202
  7188     0B2C  00F6               	movwf	clcd_print@addr
  7189     0B2D  160A  118A  22AB  120A  158A  	fcall	_clcd_print
  7190     0B32                     l3177:
  7191                           
  7192                           ;dashboard.c: 64:         adc_val=read_adc(0)/10.23;
  7193     0B32  3000               	movlw	0
  7194     0B33  160A  118A  215D  120A  158A  	fcall	_read_adc
  7195     0B38  0870               	movf	?_read_adc,w
  7196     0B39  1283               	bcf	3,5	;RP0=0, select bank0
  7197     0B3A  1303               	bcf	3,6	;RP1=0, select bank0
  7198     0B3B  00CA               	movwf	??_dashboard
  7199     0B3C  0871               	movf	?_read_adc+1,w
  7200     0B3D  00CB               	movwf	??_dashboard+1
  7201     0B3E  01CC               	clrf	??_dashboard+2
  7202     0B3F  01CD               	clrf	??_dashboard+3
  7203     0B40  084D               	movf	??_dashboard+3,w
  7204     0B41  00F9               	movwf	___xxtofl@val+3
  7205     0B42  084C               	movf	??_dashboard+2,w
  7206     0B43  00F8               	movwf	___xxtofl@val+2
  7207     0B44  084B               	movf	??_dashboard+1,w
  7208     0B45  00F7               	movwf	___xxtofl@val+1
  7209     0B46  084A               	movf	??_dashboard,w
  7210     0B47  00F6               	movwf	___xxtofl@val
  7211     0B48  3000               	movlw	0
  7212     0B49  120A  118A  200B  120A  158A  	fcall	___xxtofl
  7213     0B4E  0879               	movf	?___xxtofl+3,w
  7214     0B4F  1283               	bcf	3,5	;RP0=0, select bank0
  7215     0B50  1303               	bcf	3,6	;RP1=0, select bank0
  7216     0B51  00AD               	movwf	___fldiv@b+3
  7217     0B52  0878               	movf	?___xxtofl+2,w
  7218     0B53  00AC               	movwf	___fldiv@b+2
  7219     0B54  0877               	movf	?___xxtofl+1,w
  7220     0B55  00AB               	movwf	___fldiv@b+1
  7221     0B56  0876               	movf	?___xxtofl,w
  7222     0B57  00AA               	movwf	___fldiv@b
  7223     0B58  3041               	movlw	65
  7224     0B59  00A9               	movwf	___fldiv@a+3
  7225     0B5A  3023               	movlw	35
  7226     0B5B  00A8               	movwf	___fldiv@a+2
  7227     0B5C  30AE               	movlw	174
  7228     0B5D  00A7               	movwf	___fldiv@a+1
  7229     0B5E  3014               	movlw	20
  7230     0B5F  00A6               	movwf	___fldiv@a
  7231     0B60  120A  118A  20C1  120A  158A  	fcall	___fldiv
  7232     0B65  1283               	bcf	3,5	;RP0=0, select bank0
  7233     0B66  1303               	bcf	3,6	;RP1=0, select bank0
  7234     0B67  0829               	movf	?___fldiv+3,w
  7235     0B68  00C3               	movwf	___fltol@f1+3
  7236     0B69  0828               	movf	?___fldiv+2,w
  7237     0B6A  00C2               	movwf	___fltol@f1+2
  7238     0B6B  0827               	movf	?___fldiv+1,w
  7239     0B6C  00C1               	movwf	___fltol@f1+1
  7240     0B6D  0826               	movf	?___fldiv,w
  7241     0B6E  00C0               	movwf	___fltol@f1
  7242     0B6F  160A  118A  2627  120A  158A  	fcall	___fltol
  7243     0B74  1283               	bcf	3,5	;RP0=0, select bank0
  7244     0B75  1303               	bcf	3,6	;RP1=0, select bank0
  7245     0B76  0841               	movf	?___fltol+1,w
  7246     0B77  00D4               	movwf	_adc_val+1
  7247     0B78  0840               	movf	?___fltol,w
  7248     0B79  00D3               	movwf	_adc_val
  7249     0B7A                     l3179:
  7250                           
  7251                           ;dashboard.c: 66:         speed[0]=(adc_val/10)+'0';
  7252     0B7A  300A               	movlw	10
  7253     0B7B  00F0               	movwf	___lwdiv@divisor
  7254     0B7C  3000               	movlw	0
  7255     0B7D  00F1               	movwf	___lwdiv@divisor+1
  7256     0B7E  0854               	movf	_adc_val+1,w
  7257     0B7F  00F3               	movwf	___lwdiv@dividend+1
  7258     0B80  0853               	movf	_adc_val,w
  7259     0B81  00F2               	movwf	___lwdiv@dividend
  7260     0B82  160A  118A  2412  120A  158A  	fcall	___lwdiv
  7261     0B87  0870               	movf	?___lwdiv,w
  7262     0B88  3E30               	addlw	48
  7263     0B89  1283               	bcf	3,5	;RP0=0, select bank0
  7264     0B8A  1303               	bcf	3,6	;RP1=0, select bank0
  7265     0B8B  00E3               	movwf	_speed
  7266     0B8C                     l3181:
  7267                           
  7268                           ;dashboard.c: 67:         speed[1]=(adc_val%10)+'0';
  7269     0B8C  300A               	movlw	10
  7270     0B8D  00F0               	movwf	___lwmod@divisor
  7271     0B8E  3000               	movlw	0
  7272     0B8F  00F1               	movwf	___lwmod@divisor+1
  7273     0B90  0854               	movf	_adc_val+1,w
  7274     0B91  00F3               	movwf	___lwmod@dividend+1
  7275     0B92  0853               	movf	_adc_val,w
  7276     0B93  00F2               	movwf	___lwmod@dividend
  7277     0B94  160A  118A  23DA  120A  158A  	fcall	___lwmod
  7278     0B99  0870               	movf	?___lwmod,w
  7279     0B9A  3E30               	addlw	48
  7280     0B9B  1283               	bcf	3,5	;RP0=0, select bank0
  7281     0B9C  1303               	bcf	3,6	;RP1=0, select bank0
  7282     0B9D  00E4               	movwf	_speed+1
  7283     0B9E                     l3183:
  7284                           
  7285                           ;dashboard.c: 68:         speed[2]='\0';
  7286     0B9E  01E5               	clrf	_speed+2
  7287     0B9F                     l3185:
  7288                           
  7289                           ;dashboard.c: 70:         clcd_print(speed,(0xC0 + 14));
  7290     0B9F  3063               	movlw	(low (_speed| 0))& (0+255)
  7291     0BA0  00F4               	movwf	clcd_print@str
  7292     0BA1  3000               	movlw	0
  7293     0BA2  00F5               	movwf	clcd_print@str+1
  7294     0BA3  30CE               	movlw	206
  7295     0BA4  00F6               	movwf	clcd_print@addr
  7296     0BA5  160A  118A  22AB  120A  158A  	fcall	_clcd_print
  7297     0BAA                     l3187:
  7298                           
  7299                           ;dashboard.c: 73:         if(prev_pos!=pos)
  7300     0BAA  1283               	bcf	3,5	;RP0=0, select bank0
  7301     0BAB  1303               	bcf	3,6	;RP1=0, select bank0
  7302     0BAC  0859               	movf	_prev_pos,w
  7303     0BAD  00CA               	movwf	??_dashboard
  7304     0BAE  01CB               	clrf	??_dashboard+1
  7305     0BAF  0856               	movf	_pos+1,w
  7306     0BB0  064B               	xorwf	??_dashboard+1,w
  7307     0BB1  1D03               	skipz
  7308     0BB2  2BB5               	goto	u3375
  7309     0BB3  0855               	movf	_pos,w
  7310     0BB4  064A               	xorwf	??_dashboard,w
  7311     0BB5                     u3375:
  7312     0BB5  1903               	skipnz
  7313     0BB6  2BB8               	goto	u3371
  7314     0BB7  2BB9               	goto	u3370
  7315     0BB8                     u3371:
  7316     0BB8  2BC2               	goto	l320
  7317     0BB9                     u3370:
  7318     0BB9                     l3189:
  7319                           
  7320                           ;dashboard.c: 74:         {;dashboard.c: 75:             store_event();
  7321     0BB9  120A  158A  21FC  120A  158A  	fcall	_store_event
  7322     0BBE                     l3191:
  7323                           
  7324                           ;dashboard.c: 76:             prev_pos=pos;
  7325     0BBE  1283               	bcf	3,5	;RP0=0, select bank0
  7326     0BBF  1303               	bcf	3,6	;RP1=0, select bank0
  7327     0BC0  0855               	movf	_pos,w
  7328     0BC1  00D9               	movwf	_prev_pos
  7329     0BC2                     l320:
  7330     0BC2  0008               	return
  7331     0BC3                     __end_of_dashboard:
  7332                           
  7333                           	psect	text24
  7334     09FC                     __ptext24:	
  7335 ;; *************** function _store_event *****************
  7336 ;; Defined at:
  7337 ;;		line 81 in file "dashboard.c"
  7338 ;; Parameters:    Size  Location     Type
  7339 ;;		None
  7340 ;; Auto vars:     Size  Location     Type
  7341 ;;  i               1   12[COMMON] unsigned char 
  7342 ;; Return value:  Size  Location     Type
  7343 ;;                  1    wreg      void 
  7344 ;; Registers used:
  7345 ;;		wreg, fsr0l, fsr0h, status,2, status,0, pclath, btemp1, cstack
  7346 ;; Tracked objects:
  7347 ;;		On entry : 0/0
  7348 ;;		On exit  : 0/0
  7349 ;;		Unchanged: 0/0
  7350 ;; Data sizes:     COMMON   BANK0   BANK1   BANK3   BANK2
  7351 ;;      Params:         0       0       0       0       0
  7352 ;;      Locals:         1       0       0       0       0
  7353 ;;      Temps:          7       0       0       0       0
  7354 ;;      Totals:         8       0       0       0       0
  7355 ;;Total ram usage:        8 bytes
  7356 ;; Hardware stack levels used: 1
  7357 ;; Hardware stack levels required when called: 2
  7358 ;; This function calls:
  7359 ;;		_write_external_eeprom
  7360 ;; This function is called by:
  7361 ;;		_dashboard
  7362 ;; This function uses a non-reentrant model
  7363 ;;
  7364                           
  7365     09FC                     _store_event:	
  7366                           ;psect for function _store_event
  7367                           
  7368     09FC                     l2693:	
  7369                           ;incstack = 0
  7370                           ; Regs used in _store_event: [wreg-fsr0h+status,2+status,0+pclath+btemp1+cstack]
  7371                           
  7372                           
  7373                           ;dashboard.c: 84:     for(char i=0;i<8;i++)
  7374     09FC  01FC               	clrf	store_event@i
  7375     09FD                     l2699:
  7376                           
  7377                           ;dashboard.c: 85:     {;dashboard.c: 86:         if(i==2||i==5)
  7378     09FD  3002               	movlw	2
  7379     09FE  067C               	xorwf	store_event@i,w
  7380     09FF  1903               	btfsc	3,2
  7381     0A00  2A02               	goto	u2311
  7382     0A01  2A03               	goto	u2310
  7383     0A02                     u2311:
  7384     0A02  2A20               	goto	l2709
  7385     0A03                     u2310:
  7386     0A03                     l2701:
  7387     0A03  3005               	movlw	5
  7388     0A04  067C               	xorwf	store_event@i,w
  7389     0A05  1D03               	btfss	3,2
  7390     0A06  2A08               	goto	u2321
  7391     0A07  2A09               	goto	u2320
  7392     0A08                     u2321:
  7393     0A08  2A0A               	goto	l2705
  7394     0A09                     u2320:
  7395     0A09  2A20               	goto	l2709
  7396     0A0A                     l2705:
  7397                           
  7398                           ;dashboard.c: 91:         {;dashboard.c: 92:             write_external_eeprom(address++
      +                          ,time[i]);
  7399     0A0A  087C               	movf	store_event@i,w
  7400     0A0B  3ED7               	addlw	(low (_time| 0))& (0+255)
  7401     0A0C  0084               	movwf	4
  7402     0A0D  1383               	bcf	3,7	;select IRP bank1
  7403     0A0E  0800               	movf	0,w
  7404     0A0F  00F1               	movwf	write_external_eeprom@data
  7405     0A10  1283               	bcf	3,5	;RP0=0, select bank0
  7406     0A11  1303               	bcf	3,6	;RP1=0, select bank0
  7407     0A12  0851               	movf	_address,w
  7408     0A13  160A  118A  22DA  120A  158A  	fcall	_write_external_eeprom
  7409     0A18                     l2707:
  7410     0A18  3001               	movlw	1
  7411     0A19  1283               	bcf	3,5	;RP0=0, select bank0
  7412     0A1A  1303               	bcf	3,6	;RP1=0, select bank0
  7413     0A1B  07D1               	addwf	_address,f
  7414     0A1C  1803               	skipnc
  7415     0A1D  0AD2               	incf	_address+1,f
  7416     0A1E  3000               	movlw	0
  7417     0A1F  07D2               	addwf	_address+1,f
  7418     0A20                     l2709:
  7419     0A20  3001               	movlw	1
  7420     0A21  07FC               	addwf	store_event@i,f
  7421     0A22                     l2711:
  7422     0A22  3008               	movlw	8
  7423     0A23  027C               	subwf	store_event@i,w
  7424     0A24  1C03               	skipc
  7425     0A25  2A27               	goto	u2331
  7426     0A26  2A28               	goto	u2330
  7427     0A27                     u2331:
  7428     0A27  29FD               	goto	l2699
  7429     0A28                     u2330:
  7430     0A28                     l2713:
  7431                           
  7432                           ;dashboard.c: 96:     write_external_eeprom(address++,event[pos][0]);
  7433     0A28  1283               	bcf	3,5	;RP0=0, select bank0
  7434     0A29  1303               	bcf	3,6	;RP1=0, select bank0
  7435     0A2A  0855               	movf	_pos,w
  7436     0A2B  00F5               	movwf	??_store_event
  7437     0A2C  0775               	addwf	??_store_event,w
  7438     0A2D  3EA0               	addlw	(low (_event| 0))& (0+255)
  7439     0A2E  0084               	movwf	4
  7440     0A2F  1383               	bcf	3,7	;select IRP bank1
  7441     0A30  0800               	movf	0,w
  7442     0A31  00F6               	movwf	??_store_event+1
  7443     0A32  0A84               	incf	4,f
  7444     0A33  0800               	movf	0,w
  7445     0A34  00F7               	movwf	??_store_event+2
  7446     0A35  0877               	movf	??_store_event+2,w
  7447     0A36  00FF               	movwf	btemp1
  7448     0A37  0876               	movf	??_store_event+1,w
  7449     0A38  0084               	movwf	4
  7450     0A39  160A  118A  2000  120A  158A  	fcall	stringtab
  7451     0A3E  00F1               	movwf	write_external_eeprom@data
  7452     0A3F  0851               	movf	_address,w
  7453     0A40  160A  118A  22DA  120A  158A  	fcall	_write_external_eeprom
  7454     0A45                     l2715:
  7455     0A45  3001               	movlw	1
  7456     0A46  1283               	bcf	3,5	;RP0=0, select bank0
  7457     0A47  1303               	bcf	3,6	;RP1=0, select bank0
  7458     0A48  07D1               	addwf	_address,f
  7459     0A49  1803               	skipnc
  7460     0A4A  0AD2               	incf	_address+1,f
  7461     0A4B  3000               	movlw	0
  7462     0A4C  07D2               	addwf	_address+1,f
  7463     0A4D                     l2717:
  7464                           
  7465                           ;dashboard.c: 97:     write_external_eeprom(address++,event[pos][1]);
  7466     0A4D  3001               	movlw	1
  7467     0A4E  00F5               	movwf	??_store_event
  7468     0A4F  0855               	movf	_pos,w
  7469     0A50  00F6               	movwf	??_store_event+1
  7470     0A51  0776               	addwf	??_store_event+1,w
  7471     0A52  3EA0               	addlw	(low (_event| 0))& (0+255)
  7472     0A53  0084               	movwf	4
  7473     0A54  1383               	bcf	3,7	;select IRP bank1
  7474     0A55  0800               	movf	0,w
  7475     0A56  00F7               	movwf	??_store_event+2
  7476     0A57  0A84               	incf	4,f
  7477     0A58  0800               	movf	0,w
  7478     0A59  00F8               	movwf	??_store_event+3
  7479     0A5A  0875               	movf	??_store_event,w
  7480     0A5B  0777               	addwf	??_store_event+2,w
  7481     0A5C  00FA               	movwf	??_store_event+5
  7482     0A5D  0878               	movf	??_store_event+3,w
  7483     0A5E  00F9               	movwf	??_store_event+4
  7484     0A5F  1803               	skipnc
  7485     0A60  0AF9               	incf	??_store_event+4,f
  7486     0A61  1BF5               	btfsc	??_store_event,7
  7487     0A62  03F9               	decf	??_store_event+4,f
  7488     0A63  0879               	movf	??_store_event+4,w
  7489     0A64  00FB               	movwf	??_store_event+6
  7490     0A65  087B               	movf	??_store_event+6,w
  7491     0A66  00FF               	movwf	btemp1
  7492     0A67  087A               	movf	??_store_event+5,w
  7493     0A68  0084               	movwf	4
  7494     0A69  160A  118A  2000  120A  158A  	fcall	stringtab
  7495     0A6E  00F1               	movwf	write_external_eeprom@data
  7496     0A6F  0851               	movf	_address,w
  7497     0A70  160A  118A  22DA  120A  158A  	fcall	_write_external_eeprom
  7498     0A75  3001               	movlw	1
  7499     0A76  1283               	bcf	3,5	;RP0=0, select bank0
  7500     0A77  1303               	bcf	3,6	;RP1=0, select bank0
  7501     0A78  07D1               	addwf	_address,f
  7502     0A79  1803               	skipnc
  7503     0A7A  0AD2               	incf	_address+1,f
  7504     0A7B  3000               	movlw	0
  7505     0A7C  07D2               	addwf	_address+1,f
  7506     0A7D                     l2719:
  7507                           
  7508                           ;dashboard.c: 100:     write_external_eeprom(address++,speed[0]);
  7509     0A7D  0863               	movf	_speed,w
  7510     0A7E  00F1               	movwf	write_external_eeprom@data
  7511     0A7F  0851               	movf	_address,w
  7512     0A80  160A  118A  22DA  120A  158A  	fcall	_write_external_eeprom
  7513     0A85                     l2721:
  7514     0A85  3001               	movlw	1
  7515     0A86  1283               	bcf	3,5	;RP0=0, select bank0
  7516     0A87  1303               	bcf	3,6	;RP1=0, select bank0
  7517     0A88  07D1               	addwf	_address,f
  7518     0A89  1803               	skipnc
  7519     0A8A  0AD2               	incf	_address+1,f
  7520     0A8B  3000               	movlw	0
  7521     0A8C  07D2               	addwf	_address+1,f
  7522                           
  7523                           ;dashboard.c: 101:     write_external_eeprom(address++,speed[1]);
  7524     0A8D  0864               	movf	_speed+1,w
  7525     0A8E  00F1               	movwf	write_external_eeprom@data
  7526     0A8F  0851               	movf	_address,w
  7527     0A90  160A  118A  22DA  120A  158A  	fcall	_write_external_eeprom
  7528     0A95                     l2723:
  7529     0A95  3001               	movlw	1
  7530     0A96  1283               	bcf	3,5	;RP0=0, select bank0
  7531     0A97  1303               	bcf	3,6	;RP1=0, select bank0
  7532     0A98  07D1               	addwf	_address,f
  7533     0A99  1803               	skipnc
  7534     0A9A  0AD2               	incf	_address+1,f
  7535     0A9B  3000               	movlw	0
  7536     0A9C  07D2               	addwf	_address+1,f
  7537     0A9D                     l2725:
  7538                           
  7539                           ;dashboard.c: 103:     if(address>99)
  7540     0A9D  3000               	movlw	0
  7541     0A9E  0252               	subwf	_address+1,w
  7542     0A9F  3064               	movlw	100
  7543     0AA0  1903               	skipnz
  7544     0AA1  0251               	subwf	_address,w
  7545     0AA2  1C03               	skipc
  7546     0AA3  2AA5               	goto	u2341
  7547     0AA4  2AA6               	goto	u2340
  7548     0AA5                     u2341:
  7549     0AA5  2AA8               	goto	l331
  7550     0AA6                     u2340:
  7551     0AA6                     l2727:
  7552                           
  7553                           ;dashboard.c: 104:     {;dashboard.c: 105:         address=0;
  7554     0AA6  01D1               	clrf	_address
  7555     0AA7  01D2               	clrf	_address+1
  7556     0AA8                     l331:
  7557     0AA8  0008               	return
  7558     0AA9                     __end_of_store_event:
  7559                           
  7560                           	psect	text25
  7561     12DA                     __ptext25:	
  7562 ;; *************** function _write_external_eeprom *****************
  7563 ;; Defined at:
  7564 ;;		line 4 in file "external_eeprom.c"
  7565 ;; Parameters:    Size  Location     Type
  7566 ;;  address         1    wreg     unsigned char 
  7567 ;;  data            1    1[COMMON] unsigned char 
  7568 ;; Auto vars:     Size  Location     Type
  7569 ;;  address         1    4[COMMON] unsigned char 
  7570 ;;  wait            2    2[COMMON] unsigned int 
  7571 ;; Return value:  Size  Location     Type
  7572 ;;                  1    wreg      void 
  7573 ;; Registers used:
  7574 ;;		wreg, status,2, status,0, pclath, cstack
  7575 ;; Tracked objects:
  7576 ;;		On entry : 0/0
  7577 ;;		On exit  : 0/0
  7578 ;;		Unchanged: 0/0
  7579 ;; Data sizes:     COMMON   BANK0   BANK1   BANK3   BANK2
  7580 ;;      Params:         1       0       0       0       0
  7581 ;;      Locals:         3       0       0       0       0
  7582 ;;      Temps:          0       0       0       0       0
  7583 ;;      Totals:         4       0       0       0       0
  7584 ;;Total ram usage:        4 bytes
  7585 ;; Hardware stack levels used: 1
  7586 ;; Hardware stack levels required when called: 1
  7587 ;; This function calls:
  7588 ;;		_i2c_start
  7589 ;;		_i2c_stop
  7590 ;;		_i2c_write
  7591 ;; This function is called by:
  7592 ;;		_store_event
  7593 ;; This function uses a non-reentrant model
  7594 ;;
  7595                           
  7596     12DA                     _write_external_eeprom:	
  7597                           ;psect for function _write_external_eeprom
  7598                           
  7599                           
  7600                           ;incstack = 0
  7601                           ; Regs used in _write_external_eeprom: [wreg+status,2+status,0+pclath+cstack]
  7602                           ;write_external_eeprom@address stored from wreg
  7603     12DA  00F4               	movwf	write_external_eeprom@address
  7604     12DB                     l2553:
  7605                           
  7606                           ;external_eeprom.c: 4: void write_external_eeprom(unsigned char address, unsigned char d
      +                          ata);external_eeprom.c: 5: {;external_eeprom.c: 6:     i2c_start();
  7607     12DB  160A  118A  209C  160A  118A  	fcall	_i2c_start
  7608                           
  7609                           ;external_eeprom.c: 7:     i2c_write(0xA0);
  7610     12E0  30A0               	movlw	160
  7611     12E1  160A  118A  20C3  160A  118A  	fcall	_i2c_write
  7612                           
  7613                           ;external_eeprom.c: 8:     i2c_write(address);
  7614     12E6  0874               	movf	write_external_eeprom@address,w
  7615     12E7  160A  118A  20C3  160A  118A  	fcall	_i2c_write
  7616                           
  7617                           ;external_eeprom.c: 9:     i2c_write(data);
  7618     12EC  0871               	movf	write_external_eeprom@data,w
  7619     12ED  160A  118A  20C3  160A  118A  	fcall	_i2c_write
  7620                           
  7621                           ;external_eeprom.c: 10:     i2c_stop();
  7622     12F2  160A  118A  20A5  160A  118A  	fcall	_i2c_stop
  7623     12F7                     l2555:
  7624                           
  7625                           ;external_eeprom.c: 11:     for (unsigned int wait = 3000;wait--;);
  7626     12F7  30B8               	movlw	184
  7627     12F8  00F2               	movwf	write_external_eeprom@wait
  7628     12F9  300B               	movlw	11
  7629     12FA  00F3               	movwf	write_external_eeprom@wait+1
  7630     12FB                     l2557:
  7631     12FB  3001               	movlw	1
  7632     12FC  02F2               	subwf	write_external_eeprom@wait,f
  7633     12FD  3000               	movlw	0
  7634     12FE  1C03               	skipc
  7635     12FF  03F3               	decf	write_external_eeprom@wait+1,f
  7636     1300  02F3               	subwf	write_external_eeprom@wait+1,f
  7637     1301  0A72               	incf	write_external_eeprom@wait,w
  7638     1302  1D03               	skipz
  7639     1303  2B08               	goto	u2121
  7640     1304  0A73               	incf	write_external_eeprom@wait+1,w
  7641     1305  1D03               	btfss	3,2
  7642     1306  2B08               	goto	u2121
  7643     1307  2B09               	goto	u2120
  7644     1308                     u2121:
  7645     1308  2AFB               	goto	l2557
  7646     1309                     u2120:
  7647     1309                     l178:
  7648     1309  0008               	return
  7649     130A                     __end_of_write_external_eeprom:
  7650                           
  7651                           	psect	text26
  7652     115D                     __ptext26:	
  7653 ;; *************** function _read_adc *****************
  7654 ;; Defined at:
  7655 ;;		line 13 in file "adc.c"
  7656 ;; Parameters:    Size  Location     Type
  7657 ;;  channel         1    wreg     unsigned char 
  7658 ;; Auto vars:     Size  Location     Type
  7659 ;;  channel         1    5[COMMON] unsigned char 
  7660 ;;  adc_reg_val     2    3[COMMON] unsigned short 
  7661 ;; Return value:  Size  Location     Type
  7662 ;;                  2    0[COMMON] unsigned short 
  7663 ;; Registers used:
  7664 ;;		wreg, status,2, status,0
  7665 ;; Tracked objects:
  7666 ;;		On entry : 0/0
  7667 ;;		On exit  : 0/0
  7668 ;;		Unchanged: 0/0
  7669 ;; Data sizes:     COMMON   BANK0   BANK1   BANK3   BANK2
  7670 ;;      Params:         2       0       0       0       0
  7671 ;;      Locals:         3       0       0       0       0
  7672 ;;      Temps:          1       0       0       0       0
  7673 ;;      Totals:         6       0       0       0       0
  7674 ;;Total ram usage:        6 bytes
  7675 ;; Hardware stack levels used: 1
  7676 ;; This function calls:
  7677 ;;		Nothing
  7678 ;; This function is called by:
  7679 ;;		_dashboard
  7680 ;; This function uses a non-reentrant model
  7681 ;;
  7682                           
  7683     115D                     _read_adc:	
  7684                           ;psect for function _read_adc
  7685                           
  7686                           
  7687                           ;incstack = 0
  7688                           ; Regs used in _read_adc: [wreg+status,2+status,0]
  7689                           ;read_adc@channel stored from wreg
  7690     115D  00F5               	movwf	read_adc@channel
  7691     115E                     l2683:
  7692                           
  7693                           ;adc.c: 13: unsigned short read_adc(unsigned char channel);adc.c: 14: {;adc.c: 15:     u
      +                          nsigned short adc_reg_val;;adc.c: 18:     ADCON0 = (ADCON0 & 0xC7) | (channel << 3);
  7694     115E  0875               	movf	read_adc@channel,w
  7695     115F  00F2               	movwf	??_read_adc
  7696     1160  3003               	movlw	3
  7697     1161                     u2295:
  7698     1161  1003               	clrc
  7699     1162  0DF2               	rlf	??_read_adc,f
  7700     1163  3EFF               	addlw	-1
  7701     1164  1D03               	skipz
  7702     1165  2961               	goto	u2295
  7703     1166  1283               	bcf	3,5	;RP0=0, select bank0
  7704     1167  1303               	bcf	3,6	;RP1=0, select bank0
  7705     1168  081F               	movf	31,w	;volatile
  7706     1169  39C7               	andlw	199
  7707     116A  0472               	iorwf	??_read_adc,w
  7708     116B  009F               	movwf	31	;volatile
  7709     116C                     l2685:
  7710                           
  7711                           ;adc.c: 21:     GO = 1;
  7712     116C  151F               	bsf	31,2	;volatile
  7713     116D                     l201:	
  7714                           ;adc.c: 23:     while (nDONE);
  7715                           
  7716     116D  191F               	btfsc	31,2	;volatile
  7717     116E  2970               	goto	u2301
  7718     116F  2971               	goto	u2300
  7719     1170                     u2301:
  7720     1170  296D               	goto	l201
  7721     1171                     u2300:
  7722     1171                     l2687:
  7723                           
  7724                           ;adc.c: 25:     adc_reg_val = (ADRESH << 8) | ADRESL;
  7725     1171  081E               	movf	30,w	;volatile
  7726     1172  00F4               	movwf	read_adc@adc_reg_val+1
  7727     1173  1683               	bsf	3,5	;RP0=1, select bank1
  7728     1174  1303               	bcf	3,6	;RP1=0, select bank1
  7729     1175  081E               	movf	30,w	;volatile
  7730     1176  00F3               	movwf	read_adc@adc_reg_val
  7731                           
  7732                           ;adc.c: 27:     return adc_reg_val;
  7733     1177  0874               	movf	read_adc@adc_reg_val+1,w
  7734     1178  00F1               	movwf	?_read_adc+1
  7735     1179  0873               	movf	read_adc@adc_reg_val,w
  7736     117A  00F0               	movwf	?_read_adc
  7737     117B                     l204:
  7738     117B  0008               	return
  7739     117C                     __end_of_read_adc:
  7740                           
  7741                           	psect	text27
  7742     117C                     __ptext27:	
  7743 ;; *************** function _get_time *****************
  7744 ;; Defined at:
  7745 ;;		line 37 in file "ds1307.c"
  7746 ;; Parameters:    Size  Location     Type
  7747 ;;  clock_reg       1    4[COMMON] PTR unsigned char 
  7748 ;;		 -> set_time@clock_reg(3), clock_reg(3), 
  7749 ;; Auto vars:     Size  Location     Type
  7750 ;;		None
  7751 ;; Return value:  Size  Location     Type
  7752 ;;                  1    wreg      void 
  7753 ;; Registers used:
  7754 ;;		wreg, fsr0l, fsr0h, status,2, status,0, pclath, cstack
  7755 ;; Tracked objects:
  7756 ;;		On entry : 0/0
  7757 ;;		On exit  : 0/0
  7758 ;;		Unchanged: 0/0
  7759 ;; Data sizes:     COMMON   BANK0   BANK1   BANK3   BANK2
  7760 ;;      Params:         1       0       0       0       0
  7761 ;;      Locals:         0       0       0       0       0
  7762 ;;      Temps:          0       0       0       0       0
  7763 ;;      Totals:         1       0       0       0       0
  7764 ;;Total ram usage:        1 bytes
  7765 ;; Hardware stack levels used: 1
  7766 ;; This function calls:
  7767 ;;		_read_ds1307
  7768 ;; This function is called by:
  7769 ;;		_dashboard
  7770 ;;		_set_time
  7771 ;; This function uses a non-reentrant model
  7772 ;;
  7773                           
  7774     117C                     _get_time:	
  7775                           ;psect for function _get_time
  7776                           
  7777     117C                     l2623:	
  7778                           ;incstack = 0
  7779                           ; Regs used in _get_time: [wreg-fsr0h+status,2+status,0+pclath+cstack]
  7780                           
  7781                           
  7782                           ;ds1307.c: 37: void get_time(unsigned char *clock_reg);ds1307.c: 38: {;ds1307.c: 39:    
      +                           clock_reg[0] = read_ds1307(0x02);
  7783     117C  0874               	movf	get_time@clock_reg,w
  7784     117D  0084               	movwf	4
  7785     117E  3002               	movlw	2
  7786     117F  160A  118A  2255  160A  118A  	fcall	_read_ds1307
  7787     1184  1383               	bcf	3,7	;select IRP bank0
  7788     1185  0080               	movwf	0
  7789                           
  7790                           ;ds1307.c: 40:     clock_reg[1] = read_ds1307(0x01);
  7791     1186  0A74               	incf	get_time@clock_reg,w
  7792     1187  0084               	movwf	4
  7793     1188  3001               	movlw	1
  7794     1189  160A  118A  2255  160A  118A  	fcall	_read_ds1307
  7795     118E  1383               	bcf	3,7	;select IRP bank0
  7796     118F  0080               	movwf	0
  7797                           
  7798                           ;ds1307.c: 41:     clock_reg[2] = read_ds1307(0x00);
  7799     1190  0874               	movf	get_time@clock_reg,w
  7800     1191  3E02               	addlw	2
  7801     1192  0084               	movwf	4
  7802     1193  3000               	movlw	0
  7803     1194  160A  118A  2255  160A  118A  	fcall	_read_ds1307
  7804     1199  1383               	bcf	3,7	;select IRP bank0
  7805     119A  0080               	movwf	0
  7806     119B                     l82:
  7807     119B  0008               	return
  7808     119C                     __end_of_get_time:
  7809                           
  7810                           	psect	text28
  7811     1255                     __ptext28:	
  7812 ;; *************** function _read_ds1307 *****************
  7813 ;; Defined at:
  7814 ;;		line 13 in file "ds1307.c"
  7815 ;; Parameters:    Size  Location     Type
  7816 ;;  addr            1    wreg     unsigned char 
  7817 ;; Auto vars:     Size  Location     Type
  7818 ;;  addr            1    2[COMMON] unsigned char 
  7819 ;;  data            1    3[COMMON] unsigned char 
  7820 ;; Return value:  Size  Location     Type
  7821 ;;                  1    wreg      unsigned char 
  7822 ;; Registers used:
  7823 ;;		wreg, status,2, status,0, pclath, cstack
  7824 ;; Tracked objects:
  7825 ;;		On entry : 0/0
  7826 ;;		On exit  : 0/0
  7827 ;;		Unchanged: 0/0
  7828 ;; Data sizes:     COMMON   BANK0   BANK1   BANK3   BANK2
  7829 ;;      Params:         0       0       0       0       0
  7830 ;;      Locals:         2       0       0       0       0
  7831 ;;      Temps:          0       0       0       0       0
  7832 ;;      Totals:         2       0       0       0       0
  7833 ;;Total ram usage:        2 bytes
  7834 ;; Hardware stack levels used: 1
  7835 ;; This function calls:
  7836 ;;		_i2c_read
  7837 ;;		_i2c_rep_start
  7838 ;;		_i2c_start
  7839 ;;		_i2c_stop
  7840 ;;		_i2c_write
  7841 ;; This function is called by:
  7842 ;;		_init_ds1307
  7843 ;;		_get_time
  7844 ;; This function uses a non-reentrant model
  7845 ;;
  7846                           
  7847     1255                     _read_ds1307:	
  7848                           ;psect for function _read_ds1307
  7849                           
  7850                           
  7851                           ;incstack = 0
  7852                           ; Regs used in _read_ds1307: [wreg+status,2+status,0+pclath+cstack]
  7853                           ;read_ds1307@addr stored from wreg
  7854     1255  00F2               	movwf	read_ds1307@addr
  7855     1256                     l2537:
  7856                           
  7857                           ;ds1307.c: 13: unsigned char read_ds1307(unsigned char addr);ds1307.c: 14: {;ds1307.c: 1
      +                          5:     unsigned char data;;ds1307.c: 17:     i2c_start();
  7858     1256  160A  118A  209C  160A  118A  	fcall	_i2c_start
  7859                           
  7860                           ;ds1307.c: 18:     i2c_write(0b11010000);
  7861     125B  30D0               	movlw	208
  7862     125C  160A  118A  20C3  160A  118A  	fcall	_i2c_write
  7863                           
  7864                           ;ds1307.c: 19:     i2c_write(addr);
  7865     1261  0872               	movf	read_ds1307@addr,w
  7866     1262  160A  118A  20C3  160A  118A  	fcall	_i2c_write
  7867                           
  7868                           ;ds1307.c: 20:     i2c_rep_start();
  7869     1267  160A  118A  20B8  160A  118A  	fcall	_i2c_rep_start
  7870                           
  7871                           ;ds1307.c: 21:     i2c_write(0b11010001);
  7872     126C  30D1               	movlw	209
  7873     126D  160A  118A  20C3  160A  118A  	fcall	_i2c_write
  7874                           
  7875                           ;ds1307.c: 22:     data = i2c_read(0);
  7876     1272  3000               	movlw	0
  7877     1273  160A  118A  219C  160A  118A  	fcall	_i2c_read
  7878     1278  00F3               	movwf	read_ds1307@data
  7879                           
  7880                           ;ds1307.c: 23:     i2c_stop();
  7881     1279  160A  118A  20A5  160A  118A  	fcall	_i2c_stop
  7882     127E                     l2539:
  7883                           
  7884                           ;ds1307.c: 25:     return data;
  7885     127E  0873               	movf	read_ds1307@data,w
  7886     127F                     l76:
  7887     127F  0008               	return
  7888     1280                     __end_of_read_ds1307:
  7889                           
  7890                           	psect	text29
  7891     10C3                     __ptext29:	
  7892 ;; *************** function _i2c_write *****************
  7893 ;; Defined at:
  7894 ;;		line 65 in file "i2c.c"
  7895 ;; Parameters:    Size  Location     Type
  7896 ;;  data            1    wreg     unsigned char 
  7897 ;; Auto vars:     Size  Location     Type
  7898 ;;  data            1    0[COMMON] unsigned char 
  7899 ;; Return value:  Size  Location     Type
  7900 ;;                  2   51[None  ] int 
  7901 ;; Registers used:
  7902 ;;		wreg, status,2, status,0, pclath, cstack
  7903 ;; Tracked objects:
  7904 ;;		On entry : 0/0
  7905 ;;		On exit  : 0/0
  7906 ;;		Unchanged: 0/0
  7907 ;; Data sizes:     COMMON   BANK0   BANK1   BANK3   BANK2
  7908 ;;      Params:         0       0       0       0       0
  7909 ;;      Locals:         1       0       0       0       0
  7910 ;;      Temps:          0       0       0       0       0
  7911 ;;      Totals:         1       0       0       0       0
  7912 ;;Total ram usage:        1 bytes
  7913 ;; Hardware stack levels used: 1
  7914 ;; This function calls:
  7915 ;;		_i2c_wait_for_idle
  7916 ;; This function is called by:
  7917 ;;		_read_ds1307
  7918 ;;		_write_ds1307
  7919 ;;		_write_external_eeprom
  7920 ;;		_read_external_eeprom
  7921 ;; This function uses a non-reentrant model
  7922 ;;
  7923                           
  7924     10C3                     _i2c_write:	
  7925                           ;psect for function _i2c_write
  7926                           
  7927                           
  7928                           ;incstack = 0
  7929                           ; Regs used in _i2c_write: [wreg+status,2+status,0+pclath+cstack]
  7930                           ;i2c_write@data stored from wreg
  7931     10C3  00F0               	movwf	i2c_write@data
  7932     10C4                     l2509:
  7933                           
  7934                           ;i2c.c: 65: int i2c_write(unsigned char data);i2c.c: 66: {;i2c.c: 67:     i2c_wait_for_i
      +                          dle();
  7935     10C4  160A  118A  20D9  160A  118A  	fcall	_i2c_wait_for_idle
  7936     10C9                     l2511:
  7937                           
  7938                           ;i2c.c: 68:     SSPBUF = data;
  7939     10C9  0870               	movf	i2c_write@data,w
  7940     10CA  1283               	bcf	3,5	;RP0=0, select bank0
  7941     10CB  1303               	bcf	3,6	;RP1=0, select bank0
  7942     10CC  0093               	movwf	19	;volatile
  7943     10CD                     l2513:
  7944     10CD                     l52:	
  7945                           ;i2c.c: 70:     return !ACKSTAT;;	Return value of _i2c_write is never used
  7946                           
  7947     10CD  0008               	return
  7948     10CE                     __end_of_i2c_write:
  7949                           
  7950                           	psect	text30
  7951     10B8                     __ptext30:	
  7952 ;; *************** function _i2c_rep_start *****************
  7953 ;; Defined at:
  7954 ;;		line 28 in file "i2c.c"
  7955 ;; Parameters:    Size  Location     Type
  7956 ;;		None
  7957 ;; Auto vars:     Size  Location     Type
  7958 ;;		None
  7959 ;; Return value:  Size  Location     Type
  7960 ;;                  1    wreg      void 
  7961 ;; Registers used:
  7962 ;;		wreg, status,2, status,0, pclath, cstack
  7963 ;; Tracked objects:
  7964 ;;		On entry : 0/0
  7965 ;;		On exit  : 0/0
  7966 ;;		Unchanged: 0/0
  7967 ;; Data sizes:     COMMON   BANK0   BANK1   BANK3   BANK2
  7968 ;;      Params:         0       0       0       0       0
  7969 ;;      Locals:         0       0       0       0       0
  7970 ;;      Temps:          0       0       0       0       0
  7971 ;;      Totals:         0       0       0       0       0
  7972 ;;Total ram usage:        0 bytes
  7973 ;; Hardware stack levels used: 1
  7974 ;; This function calls:
  7975 ;;		_i2c_start
  7976 ;;		_i2c_stop
  7977 ;; This function is called by:
  7978 ;;		_read_ds1307
  7979 ;;		_read_external_eeprom
  7980 ;; This function uses a non-reentrant model
  7981 ;;
  7982                           
  7983     10B8                     _i2c_rep_start:	
  7984                           ;psect for function _i2c_rep_start
  7985                           
  7986     10B8                     l2493:	
  7987                           ;incstack = 0
  7988                           ; Regs used in _i2c_rep_start: [wreg+status,2+status,0+pclath+cstack]
  7989                           
  7990                           
  7991                           ;i2c.c: 30:     i2c_stop();
  7992     10B8  160A  118A  20A5  160A  118A  	fcall	_i2c_stop
  7993                           
  7994                           ;i2c.c: 31:     i2c_start();
  7995     10BD  160A  118A  209C  160A  118A  	fcall	_i2c_start
  7996     10C2                     l41:
  7997     10C2  0008               	return
  7998     10C3                     __end_of_i2c_rep_start:
  7999                           
  8000                           	psect	text31
  8001     10A5                     __ptext31:	
  8002 ;; *************** function _i2c_stop *****************
  8003 ;; Defined at:
  8004 ;;		line 35 in file "i2c.c"
  8005 ;; Parameters:    Size  Location     Type
  8006 ;;		None
  8007 ;; Auto vars:     Size  Location     Type
  8008 ;;		None
  8009 ;; Return value:  Size  Location     Type
  8010 ;;                  1    wreg      void 
  8011 ;; Registers used:
  8012 ;;		wreg, status,2, status,0, pclath, cstack
  8013 ;; Tracked objects:
  8014 ;;		On entry : 0/0
  8015 ;;		On exit  : 0/0
  8016 ;;		Unchanged: 0/0
  8017 ;; Data sizes:     COMMON   BANK0   BANK1   BANK3   BANK2
  8018 ;;      Params:         0       0       0       0       0
  8019 ;;      Locals:         0       0       0       0       0
  8020 ;;      Temps:          0       0       0       0       0
  8021 ;;      Totals:         0       0       0       0       0
  8022 ;;Total ram usage:        0 bytes
  8023 ;; Hardware stack levels used: 1
  8024 ;; This function calls:
  8025 ;;		_i2c_wait_for_idle
  8026 ;; This function is called by:
  8027 ;;		_i2c_rep_start
  8028 ;;		_read_ds1307
  8029 ;;		_write_ds1307
  8030 ;;		_write_external_eeprom
  8031 ;;		_read_external_eeprom
  8032 ;; This function uses a non-reentrant model
  8033 ;;
  8034                           
  8035     10A5                     _i2c_stop:	
  8036                           ;psect for function _i2c_stop
  8037                           
  8038     10A5                     l2489:	
  8039                           ;incstack = 0
  8040                           ; Regs used in _i2c_stop: [wreg+status,2+status,0+pclath+cstack]
  8041                           
  8042                           
  8043                           ;i2c.c: 37:     i2c_wait_for_idle();
  8044     10A5  160A  118A  20D9  160A  118A  	fcall	_i2c_wait_for_idle
  8045     10AA                     l2491:
  8046                           
  8047                           ;i2c.c: 38:     PEN = 1;
  8048     10AA  1683               	bsf	3,5	;RP0=1, select bank1
  8049     10AB  1303               	bcf	3,6	;RP1=0, select bank1
  8050     10AC  1511               	bsf	17,2	;volatile
  8051     10AD                     l44:
  8052     10AD  0008               	return
  8053     10AE                     __end_of_i2c_stop:
  8054                           
  8055                           	psect	text32
  8056     109C                     __ptext32:	
  8057 ;; *************** function _i2c_start *****************
  8058 ;; Defined at:
  8059 ;;		line 22 in file "i2c.c"
  8060 ;; Parameters:    Size  Location     Type
  8061 ;;		None
  8062 ;; Auto vars:     Size  Location     Type
  8063 ;;		None
  8064 ;; Return value:  Size  Location     Type
  8065 ;;                  1    wreg      void 
  8066 ;; Registers used:
  8067 ;;		wreg, status,2, status,0, pclath, cstack
  8068 ;; Tracked objects:
  8069 ;;		On entry : 0/0
  8070 ;;		On exit  : 0/0
  8071 ;;		Unchanged: 0/0
  8072 ;; Data sizes:     COMMON   BANK0   BANK1   BANK3   BANK2
  8073 ;;      Params:         0       0       0       0       0
  8074 ;;      Locals:         0       0       0       0       0
  8075 ;;      Temps:          0       0       0       0       0
  8076 ;;      Totals:         0       0       0       0       0
  8077 ;;Total ram usage:        0 bytes
  8078 ;; Hardware stack levels used: 1
  8079 ;; This function calls:
  8080 ;;		_i2c_wait_for_idle
  8081 ;; This function is called by:
  8082 ;;		_i2c_rep_start
  8083 ;;		_read_ds1307
  8084 ;;		_write_ds1307
  8085 ;;		_write_external_eeprom
  8086 ;;		_read_external_eeprom
  8087 ;; This function uses a non-reentrant model
  8088 ;;
  8089                           
  8090     109C                     _i2c_start:	
  8091                           ;psect for function _i2c_start
  8092                           
  8093     109C                     l2485:	
  8094                           ;incstack = 0
  8095                           ; Regs used in _i2c_start: [wreg+status,2+status,0+pclath+cstack]
  8096                           
  8097                           
  8098                           ;i2c.c: 24:     i2c_wait_for_idle();
  8099     109C  160A  118A  20D9  160A  118A  	fcall	_i2c_wait_for_idle
  8100     10A1                     l2487:
  8101                           
  8102                           ;i2c.c: 25:     SEN = 1;
  8103     10A1  1683               	bsf	3,5	;RP0=1, select bank1
  8104     10A2  1303               	bcf	3,6	;RP1=0, select bank1
  8105     10A3  1411               	bsf	17,0	;volatile
  8106     10A4                     l38:
  8107     10A4  0008               	return
  8108     10A5                     __end_of_i2c_start:
  8109                           
  8110                           	psect	text33
  8111     119C                     __ptext33:	
  8112 ;; *************** function _i2c_read *****************
  8113 ;; Defined at:
  8114 ;;		line 41 in file "i2c.c"
  8115 ;; Parameters:    Size  Location     Type
  8116 ;;  ack             1    wreg     unsigned char 
  8117 ;; Auto vars:     Size  Location     Type
  8118 ;;  ack             1    0[COMMON] unsigned char 
  8119 ;;  data            1    1[COMMON] unsigned char 
  8120 ;; Return value:  Size  Location     Type
  8121 ;;                  1    wreg      unsigned char 
  8122 ;; Registers used:
  8123 ;;		wreg, status,2, status,0, pclath, cstack
  8124 ;; Tracked objects:
  8125 ;;		On entry : 0/0
  8126 ;;		On exit  : 0/0
  8127 ;;		Unchanged: 0/0
  8128 ;; Data sizes:     COMMON   BANK0   BANK1   BANK3   BANK2
  8129 ;;      Params:         0       0       0       0       0
  8130 ;;      Locals:         2       0       0       0       0
  8131 ;;      Temps:          0       0       0       0       0
  8132 ;;      Totals:         2       0       0       0       0
  8133 ;;Total ram usage:        2 bytes
  8134 ;; Hardware stack levels used: 1
  8135 ;; This function calls:
  8136 ;;		_i2c_wait_for_idle
  8137 ;; This function is called by:
  8138 ;;		_read_ds1307
  8139 ;;		_read_external_eeprom
  8140 ;; This function uses a non-reentrant model
  8141 ;;
  8142                           
  8143     119C                     _i2c_read:	
  8144                           ;psect for function _i2c_read
  8145                           
  8146                           
  8147                           ;incstack = 0
  8148                           ; Regs used in _i2c_read: [wreg+status,2+status,0+pclath+cstack]
  8149                           ;i2c_read@ack stored from wreg
  8150     119C  00F0               	movwf	i2c_read@ack
  8151     119D                     l2495:
  8152                           
  8153                           ;i2c.c: 41: unsigned char i2c_read(unsigned char ack);i2c.c: 42: {;i2c.c: 43:     unsign
      +                          ed char data;;i2c.c: 45:     i2c_wait_for_idle();
  8154     119D  160A  118A  20D9  160A  118A  	fcall	_i2c_wait_for_idle
  8155     11A2                     l2497:
  8156                           
  8157                           ;i2c.c: 46:     RCEN = 1;
  8158     11A2  1683               	bsf	3,5	;RP0=1, select bank1
  8159     11A3  1303               	bcf	3,6	;RP1=0, select bank1
  8160     11A4  1591               	bsf	17,3	;volatile
  8161                           
  8162                           ;i2c.c: 48:     i2c_wait_for_idle();
  8163     11A5  160A  118A  20D9  160A  118A  	fcall	_i2c_wait_for_idle
  8164     11AA                     l2499:
  8165                           
  8166                           ;i2c.c: 49:     data = SSPBUF;
  8167     11AA  1283               	bcf	3,5	;RP0=0, select bank0
  8168     11AB  1303               	bcf	3,6	;RP1=0, select bank0
  8169     11AC  0813               	movf	19,w	;volatile
  8170     11AD  00F1               	movwf	i2c_read@data
  8171     11AE                     l2501:
  8172                           
  8173                           ;i2c.c: 51:     if (ack == 1)
  8174     11AE  0370               	decf	i2c_read@ack,w
  8175     11AF  1D03               	btfss	3,2
  8176     11B0  29B2               	goto	u2071
  8177     11B1  29B3               	goto	u2070
  8178     11B2                     u2071:
  8179     11B2  29B7               	goto	l47
  8180     11B3                     u2070:
  8181     11B3                     l2503:
  8182                           
  8183                           ;i2c.c: 52:     {;i2c.c: 53:         ACKDT = 1;
  8184     11B3  1683               	bsf	3,5	;RP0=1, select bank1
  8185     11B4  1303               	bcf	3,6	;RP1=0, select bank1
  8186     11B5  1691               	bsf	17,5	;volatile
  8187                           
  8188                           ;i2c.c: 54:     }
  8189     11B6  29BA               	goto	l48
  8190     11B7                     l47:	
  8191                           ;i2c.c: 55:     else
  8192                           
  8193                           
  8194                           ;i2c.c: 56:     {;i2c.c: 57:         ACKDT = 0;
  8195     11B7  1683               	bsf	3,5	;RP0=1, select bank1
  8196     11B8  1303               	bcf	3,6	;RP1=0, select bank1
  8197     11B9  1291               	bcf	17,5	;volatile
  8198     11BA                     l48:	
  8199                           ;i2c.c: 58:     }
  8200                           
  8201                           
  8202                           ;i2c.c: 60:     ACKEN = 1;
  8203     11BA  1611               	bsf	17,4	;volatile
  8204     11BB                     l2505:
  8205                           
  8206                           ;i2c.c: 62:     return data;
  8207     11BB  0871               	movf	i2c_read@data,w
  8208     11BC                     l49:
  8209     11BC  0008               	return
  8210     11BD                     __end_of_i2c_read:
  8211                           
  8212                           	psect	text34
  8213     10D9                     __ptext34:	
  8214 ;; *************** function _i2c_wait_for_idle *****************
  8215 ;; Defined at:
  8216 ;;		line 16 in file "i2c.c"
  8217 ;; Parameters:    Size  Location     Type
  8218 ;;		None
  8219 ;; Auto vars:     Size  Location     Type
  8220 ;;		None
  8221 ;; Return value:  Size  Location     Type
  8222 ;;                  1    wreg      void 
  8223 ;; Registers used:
  8224 ;;		wreg, status,2
  8225 ;; Tracked objects:
  8226 ;;		On entry : 0/0
  8227 ;;		On exit  : 0/0
  8228 ;;		Unchanged: 0/0
  8229 ;; Data sizes:     COMMON   BANK0   BANK1   BANK3   BANK2
  8230 ;;      Params:         0       0       0       0       0
  8231 ;;      Locals:         0       0       0       0       0
  8232 ;;      Temps:          0       0       0       0       0
  8233 ;;      Totals:         0       0       0       0       0
  8234 ;;Total ram usage:        0 bytes
  8235 ;; Hardware stack levels used: 1
  8236 ;; This function calls:
  8237 ;;		Nothing
  8238 ;; This function is called by:
  8239 ;;		_i2c_start
  8240 ;;		_i2c_stop
  8241 ;;		_i2c_read
  8242 ;;		_i2c_write
  8243 ;; This function uses a non-reentrant model
  8244 ;;
  8245                           
  8246     10D9                     _i2c_wait_for_idle:	
  8247                           ;psect for function _i2c_wait_for_idle
  8248                           
  8249     10D9                     l2481:	
  8250                           ;incstack = 0
  8251                           ; Regs used in _i2c_wait_for_idle: [wreg+status,2]
  8252                           
  8253     10D9                     l32:	
  8254                           ;i2c.c: 19:     while (R_nW || (SSPCON2 & 0x1F));
  8255                           
  8256     10D9  1683               	bsf	3,5	;RP0=1, select bank1
  8257     10DA  1303               	bcf	3,6	;RP1=0, select bank1
  8258     10DB  1914               	btfsc	20,2	;volatile
  8259     10DC  28DE               	goto	u2051
  8260     10DD  28DF               	goto	u2050
  8261     10DE                     u2051:
  8262     10DE  28D9               	goto	l32
  8263     10DF                     u2050:
  8264     10DF                     l2483:
  8265     10DF  0811               	movf	17,w	;volatile
  8266     10E0  391F               	andlw	31
  8267     10E1  1D03               	btfss	3,2
  8268     10E2  28E4               	goto	u2061
  8269     10E3  28E5               	goto	u2060
  8270     10E4                     u2061:
  8271     10E4  28D9               	goto	l32
  8272     10E5                     u2060:
  8273     10E5                     l35:
  8274     10E5  0008               	return
  8275     10E6                     __end_of_i2c_wait_for_idle:
  8276                           
  8277                           	psect	text35
  8278     1454                     __ptext35:	
  8279 ;; *************** function _display_time *****************
  8280 ;; Defined at:
  8281 ;;		line 43 in file "ds1307.c"
  8282 ;; Parameters:    Size  Location     Type
  8283 ;;  clock_reg       1    7[COMMON] PTR unsigned char 
  8284 ;;		 -> clock_reg(3), 
  8285 ;; Auto vars:     Size  Location     Type
  8286 ;;		None
  8287 ;; Return value:  Size  Location     Type
  8288 ;;                  1    wreg      void 
  8289 ;; Registers used:
  8290 ;;		wreg, fsr0l, fsr0h, status,2, status,0, pclath, btemp1, cstack
  8291 ;; Tracked objects:
  8292 ;;		On entry : 0/0
  8293 ;;		On exit  : 0/0
  8294 ;;		Unchanged: 0/0
  8295 ;; Data sizes:     COMMON   BANK0   BANK1   BANK3   BANK2
  8296 ;;      Params:         1       0       0       0       0
  8297 ;;      Locals:         0       0       0       0       0
  8298 ;;      Temps:          1       0       0       0       0
  8299 ;;      Totals:         2       0       0       0       0
  8300 ;;Total ram usage:        2 bytes
  8301 ;; Hardware stack levels used: 1
  8302 ;; Hardware stack levels required when called: 1
  8303 ;; This function calls:
  8304 ;;		_clcd_print
  8305 ;; This function is called by:
  8306 ;;		_dashboard
  8307 ;; This function uses a non-reentrant model
  8308 ;;
  8309                           
  8310     1454                     _display_time:	
  8311                           ;psect for function _display_time
  8312                           
  8313     1454                     l2625:	
  8314                           ;incstack = 0
  8315                           ; Regs used in _display_time: [wreg-fsr0h+status,2+status,0+pclath+btemp1+cstack]
  8316                           
  8317                           
  8318                           ;ds1307.c: 43: void display_time(unsigned char *clock_reg);ds1307.c: 44: {;ds1307.c: 52:
      +                               time[0] = ((clock_reg[0] >> 4) & 0x03) + '0';
  8319     1454  0877               	movf	display_time@clock_reg,w
  8320     1455  0084               	movwf	4
  8321     1456  1383               	bcf	3,7	;select IRP bank0
  8322     1457  0800               	movf	0,w
  8323     1458  00F8               	movwf	??_display_time
  8324     1459  3004               	movlw	4
  8325     145A                     u2225:
  8326     145A  1003               	clrc
  8327     145B  0CF8               	rrf	??_display_time,f
  8328     145C  3EFF               	addlw	-1
  8329     145D  1D03               	skipz
  8330     145E  2C5A               	goto	u2225
  8331     145F  0878               	movf	??_display_time,w
  8332     1460  3903               	andlw	3
  8333     1461  3E30               	addlw	48
  8334     1462  1683               	bsf	3,5	;RP0=1, select bank1
  8335     1463  1303               	bcf	3,6	;RP1=0, select bank1
  8336     1464  00D7               	movwf	_time^(0+128)
  8337                           
  8338                           ;ds1307.c: 53:     time[1] = (clock_reg[0] & 0x0F) + '0';
  8339     1465  0877               	movf	display_time@clock_reg,w
  8340     1466  0084               	movwf	4
  8341     1467  0800               	movf	0,w
  8342     1468  390F               	andlw	15
  8343     1469  3E30               	addlw	48
  8344     146A  00D8               	movwf	(_time^(0+128)+1)
  8345     146B                     l2627:
  8346                           
  8347                           ;ds1307.c: 55:     time[2] = ':';
  8348     146B  303A               	movlw	58
  8349     146C  00D9               	movwf	(_time^(0+128)+2)
  8350                           
  8351                           ;ds1307.c: 57:     time[3] = ((clock_reg[1] >> 4) & 0x07) + '0';
  8352     146D  0A77               	incf	display_time@clock_reg,w
  8353     146E  0084               	movwf	4
  8354     146F  0800               	movf	0,w
  8355     1470  00F8               	movwf	??_display_time
  8356     1471  3004               	movlw	4
  8357     1472                     u2235:
  8358     1472  1003               	clrc
  8359     1473  0CF8               	rrf	??_display_time,f
  8360     1474  3EFF               	addlw	-1
  8361     1475  1D03               	skipz
  8362     1476  2C72               	goto	u2235
  8363     1477  0878               	movf	??_display_time,w
  8364     1478  3907               	andlw	7
  8365     1479  3E30               	addlw	48
  8366     147A  00DA               	movwf	(_time^(0+128)+3)
  8367                           
  8368                           ;ds1307.c: 58:     time[4] = (clock_reg[1] & 0x0F) + '0';
  8369     147B  0A77               	incf	display_time@clock_reg,w
  8370     147C  0084               	movwf	4
  8371     147D  0800               	movf	0,w
  8372     147E  390F               	andlw	15
  8373     147F  3E30               	addlw	48
  8374     1480  00DB               	movwf	(_time^(0+128)+4)
  8375     1481                     l2629:
  8376                           
  8377                           ;ds1307.c: 60:     time[5] = ':';
  8378     1481  303A               	movlw	58
  8379     1482  00DC               	movwf	(_time^(0+128)+5)
  8380                           
  8381                           ;ds1307.c: 62:     time[6] = ((clock_reg[2] >> 4) & 0x07) + '0';
  8382     1483  0877               	movf	display_time@clock_reg,w
  8383     1484  3E02               	addlw	2
  8384     1485  0084               	movwf	4
  8385     1486  0800               	movf	0,w
  8386     1487  00F8               	movwf	??_display_time
  8387     1488  3004               	movlw	4
  8388     1489                     u2245:
  8389     1489  1003               	clrc
  8390     148A  0CF8               	rrf	??_display_time,f
  8391     148B  3EFF               	addlw	-1
  8392     148C  1D03               	skipz
  8393     148D  2C89               	goto	u2245
  8394     148E  0878               	movf	??_display_time,w
  8395     148F  3907               	andlw	7
  8396     1490  3E30               	addlw	48
  8397     1491  00DD               	movwf	(_time^(0+128)+6)
  8398                           
  8399                           ;ds1307.c: 63:     time[7] = (clock_reg[2] & 0x0F) + '0';
  8400     1492  0877               	movf	display_time@clock_reg,w
  8401     1493  3E02               	addlw	2
  8402     1494  0084               	movwf	4
  8403     1495  0800               	movf	0,w
  8404     1496  390F               	andlw	15
  8405     1497  3E30               	addlw	48
  8406     1498  00DE               	movwf	(_time^(0+128)+7)
  8407     1499                     l2631:
  8408                           
  8409                           ;ds1307.c: 64:     time[8] = '\0';
  8410     1499  01DF               	clrf	(_time^(0+128)+8)
  8411     149A                     l2633:
  8412                           
  8413                           ;ds1307.c: 66:     clcd_print(time, (0xC0 + 0));
  8414     149A  30D7               	movlw	(low (_time| 0))& (0+255)
  8415     149B  00F4               	movwf	clcd_print@str
  8416     149C  3000               	movlw	0
  8417     149D  00F5               	movwf	clcd_print@str+1
  8418     149E  30C0               	movlw	192
  8419     149F  00F6               	movwf	clcd_print@addr
  8420     14A0  160A  118A  22AB  160A  118A  	fcall	_clcd_print
  8421     14A5                     l85:
  8422     14A5  0008               	return
  8423     14A6                     __end_of_display_time:
  8424                           
  8425                           	psect	text36
  8426     000B                     __ptext36:	
  8427 ;; *************** function ___xxtofl *****************
  8428 ;; Defined at:
  8429 ;;		line 10 in file "C:\Program Files\Microchip\xc8\v3.10\pic\sources\c99\common\xxtofl.c"
  8430 ;; Parameters:    Size  Location     Type
  8431 ;;  sign            1    wreg     unsigned char 
  8432 ;;  val             4    6[COMMON] long 
  8433 ;; Auto vars:     Size  Location     Type
  8434 ;;  sign            1    0[BANK0 ] unsigned char 
  8435 ;;  arg             4    2[BANK0 ] unsigned long 
  8436 ;;  exp             1    1[BANK0 ] unsigned char 
  8437 ;; Return value:  Size  Location     Type
  8438 ;;                  4    6[COMMON] unsigned char 
  8439 ;; Registers used:
  8440 ;;		wreg, status,2, status,0
  8441 ;; Tracked objects:
  8442 ;;		On entry : 0/0
  8443 ;;		On exit  : 0/0
  8444 ;;		Unchanged: 0/0
  8445 ;; Data sizes:     COMMON   BANK0   BANK1   BANK3   BANK2
  8446 ;;      Params:         4       0       0       0       0
  8447 ;;      Locals:         0       6       0       0       0
  8448 ;;      Temps:          4       0       0       0       0
  8449 ;;      Totals:         8       6       0       0       0
  8450 ;;Total ram usage:       14 bytes
  8451 ;; Hardware stack levels used: 1
  8452 ;; This function calls:
  8453 ;;		Nothing
  8454 ;; This function is called by:
  8455 ;;		_dashboard
  8456 ;; This function uses a non-reentrant model
  8457 ;;
  8458                           
  8459     000B                     ___xxtofl:	
  8460                           ;psect for function ___xxtofl
  8461                           
  8462                           
  8463                           ;incstack = 0
  8464                           ; Regs used in ___xxtofl: [wreg+status,2+status,0]
  8465                           ;___xxtofl@sign stored from wreg
  8466     000B  1283               	bcf	3,5	;RP0=0, select bank0
  8467     000C  1303               	bcf	3,6	;RP1=0, select bank0
  8468     000D  00A0               	movwf	___xxtofl@sign
  8469     000E                     l3093:
  8470     000E  0820               	movf	___xxtofl@sign,w
  8471     000F  1903               	btfsc	3,2
  8472     0010  2812               	goto	u3161
  8473     0011  2813               	goto	u3160
  8474     0012                     u3161:
  8475     0012  2827               	goto	l3099
  8476     0013                     u3160:
  8477     0013                     l3095:
  8478     0013  1FF9               	btfss	___xxtofl@val+3,7
  8479     0014  2816               	goto	u3171
  8480     0015  2817               	goto	u3170
  8481     0016                     u3171:
  8482     0016  2827               	goto	l3099
  8483     0017                     u3170:
  8484     0017                     l3097:
  8485     0017  0976               	comf	___xxtofl@val,w
  8486     0018  00A2               	movwf	___xxtofl@arg
  8487     0019  0977               	comf	___xxtofl@val+1,w
  8488     001A  00A3               	movwf	___xxtofl@arg+1
  8489     001B  0978               	comf	___xxtofl@val+2,w
  8490     001C  00A4               	movwf	___xxtofl@arg+2
  8491     001D  0979               	comf	___xxtofl@val+3,w
  8492     001E  00A5               	movwf	___xxtofl@arg+3
  8493     001F  0AA2               	incf	___xxtofl@arg,f
  8494     0020  1903               	skipnz
  8495     0021  0AA3               	incf	___xxtofl@arg+1,f
  8496     0022  1903               	skipnz
  8497     0023  0AA4               	incf	___xxtofl@arg+2,f
  8498     0024  1903               	skipnz
  8499     0025  0AA5               	incf	___xxtofl@arg+3,f
  8500     0026  282F               	goto	l1090
  8501     0027                     l3099:
  8502     0027  0879               	movf	___xxtofl@val+3,w
  8503     0028  00A5               	movwf	___xxtofl@arg+3
  8504     0029  0878               	movf	___xxtofl@val+2,w
  8505     002A  00A4               	movwf	___xxtofl@arg+2
  8506     002B  0877               	movf	___xxtofl@val+1,w
  8507     002C  00A3               	movwf	___xxtofl@arg+1
  8508     002D  0876               	movf	___xxtofl@val,w
  8509     002E  00A2               	movwf	___xxtofl@arg
  8510     002F                     l1090:
  8511     002F  0879               	movf	___xxtofl@val+3,w
  8512     0030  0478               	iorwf	___xxtofl@val+2,w
  8513     0031  0477               	iorwf	___xxtofl@val+1,w
  8514     0032  0476               	iorwf	___xxtofl@val,w
  8515     0033  1D03               	skipz
  8516     0034  2836               	goto	u3181
  8517     0035  2837               	goto	u3180
  8518     0036                     u3181:
  8519     0036  2840               	goto	l1091
  8520     0037                     u3180:
  8521     0037                     l3101:
  8522     0037  3000               	movlw	0
  8523     0038  00F9               	movwf	?___xxtofl+3
  8524     0039  3000               	movlw	0
  8525     003A  00F8               	movwf	?___xxtofl+2
  8526     003B  3000               	movlw	0
  8527     003C  00F7               	movwf	?___xxtofl+1
  8528     003D  3000               	movlw	0
  8529     003E  00F6               	movwf	?___xxtofl
  8530     003F  28C0               	goto	l1092
  8531     0040                     l1091:
  8532     0040  3096               	movlw	150
  8533     0041  00A1               	movwf	___xxtofl@exp
  8534     0042  284E               	goto	l3107
  8535     0043                     l3105:
  8536     0043  3001               	movlw	1
  8537     0044  07A1               	addwf	___xxtofl@exp,f
  8538     0045  3001               	movlw	1
  8539     0046                     u3195:
  8540     0046  1003               	clrc
  8541     0047  0CA5               	rrf	___xxtofl@arg+3,f
  8542     0048  0CA4               	rrf	___xxtofl@arg+2,f
  8543     0049  0CA3               	rrf	___xxtofl@arg+1,f
  8544     004A  0CA2               	rrf	___xxtofl@arg,f
  8545     004B  3EFF               	addlw	-1
  8546     004C  1D03               	skipz
  8547     004D  2846               	goto	u3195
  8548     004E                     l3107:
  8549     004E  30FE               	movlw	254
  8550     004F  0525               	andwf	___xxtofl@arg+3,w
  8551     0050  1D03               	btfss	3,2
  8552     0051  2853               	goto	u3201
  8553     0052  2854               	goto	u3200
  8554     0053                     u3201:
  8555     0053  2843               	goto	l3105
  8556     0054                     u3200:
  8557     0054  286E               	goto	l1096
  8558     0055                     l3109:
  8559     0055  3001               	movlw	1
  8560     0056  07A1               	addwf	___xxtofl@exp,f
  8561     0057                     l3111:
  8562     0057  3001               	movlw	1
  8563     0058  07A2               	addwf	___xxtofl@arg,f
  8564     0059  3000               	movlw	0
  8565     005A  1803               	skipnc
  8566     005B  3001               	movlw	1
  8567     005C  07A3               	addwf	___xxtofl@arg+1,f
  8568     005D  3000               	movlw	0
  8569     005E  1803               	skipnc
  8570     005F  3001               	movlw	1
  8571     0060  07A4               	addwf	___xxtofl@arg+2,f
  8572     0061  3000               	movlw	0
  8573     0062  1803               	skipnc
  8574     0063  3001               	movlw	1
  8575     0064  07A5               	addwf	___xxtofl@arg+3,f
  8576     0065                     l3113:
  8577     0065  3001               	movlw	1
  8578     0066                     u3215:
  8579     0066  1003               	clrc
  8580     0067  0CA5               	rrf	___xxtofl@arg+3,f
  8581     0068  0CA4               	rrf	___xxtofl@arg+2,f
  8582     0069  0CA3               	rrf	___xxtofl@arg+1,f
  8583     006A  0CA2               	rrf	___xxtofl@arg,f
  8584     006B  3EFF               	addlw	-1
  8585     006C  1D03               	skipz
  8586     006D  2866               	goto	u3215
  8587     006E                     l1096:
  8588     006E  30FF               	movlw	255
  8589     006F  0525               	andwf	___xxtofl@arg+3,w
  8590     0070  1D03               	btfss	3,2
  8591     0071  2873               	goto	u3221
  8592     0072  2874               	goto	u3220
  8593     0073                     u3221:
  8594     0073  2855               	goto	l3109
  8595     0074                     u3220:
  8596     0074  2880               	goto	l3117
  8597     0075                     l3115:
  8598     0075  3001               	movlw	1
  8599     0076  02A1               	subwf	___xxtofl@exp,f
  8600     0077  3001               	movlw	1
  8601     0078  00FA               	movwf	??___xxtofl
  8602     0079                     u3235:
  8603     0079  1003               	clrc
  8604     007A  0DA2               	rlf	___xxtofl@arg,f
  8605     007B  0DA3               	rlf	___xxtofl@arg+1,f
  8606     007C  0DA4               	rlf	___xxtofl@arg+2,f
  8607     007D  0DA5               	rlf	___xxtofl@arg+3,f
  8608     007E  0BFA               	decfsz	??___xxtofl,f
  8609     007F  2879               	goto	u3235
  8610     0080                     l3117:
  8611     0080  1BA4               	btfsc	___xxtofl@arg+2,7
  8612     0081  2883               	goto	u3241
  8613     0082  2884               	goto	u3240
  8614     0083                     u3241:
  8615     0083  288A               	goto	l1103
  8616     0084                     u3240:
  8617     0084                     l3119:
  8618     0084  3002               	movlw	2
  8619     0085  0221               	subwf	___xxtofl@exp,w
  8620     0086  1803               	skipnc
  8621     0087  2889               	goto	u3251
  8622     0088  288A               	goto	u3250
  8623     0089                     u3251:
  8624     0089  2875               	goto	l3115
  8625     008A                     u3250:
  8626     008A                     l1103:
  8627     008A  1821               	btfsc	___xxtofl@exp,0
  8628     008B  288D               	goto	u3261
  8629     008C  288E               	goto	u3260
  8630     008D                     u3261:
  8631     008D  2896               	goto	l1104
  8632     008E                     u3260:
  8633     008E                     l3121:
  8634     008E  30FF               	movlw	255
  8635     008F  05A2               	andwf	___xxtofl@arg,f
  8636     0090  30FF               	movlw	255
  8637     0091  05A3               	andwf	___xxtofl@arg+1,f
  8638     0092  307F               	movlw	127
  8639     0093  05A4               	andwf	___xxtofl@arg+2,f
  8640     0094  30FF               	movlw	255
  8641     0095  05A5               	andwf	___xxtofl@arg+3,f
  8642     0096                     l1104:
  8643     0096  1003               	clrc
  8644     0097  0CA1               	rrf	___xxtofl@exp,f
  8645     0098                     l3123:
  8646     0098  0821               	movf	___xxtofl@exp,w
  8647     0099  00FA               	movwf	??___xxtofl
  8648     009A  01FB               	clrf	??___xxtofl+1
  8649     009B  01FC               	clrf	??___xxtofl+2
  8650     009C  01FD               	clrf	??___xxtofl+3
  8651     009D  3018               	movlw	24
  8652     009E                     u3275:
  8653     009E  1003               	clrc
  8654     009F  0DFA               	rlf	??___xxtofl,f
  8655     00A0  0DFB               	rlf	??___xxtofl+1,f
  8656     00A1  0DFC               	rlf	??___xxtofl+2,f
  8657     00A2  0DFD               	rlf	??___xxtofl+3,f
  8658     00A3                     u3270:
  8659     00A3  3EFF               	addlw	-1
  8660     00A4  1D03               	skipz
  8661     00A5  289E               	goto	u3275
  8662     00A6  087A               	movf	??___xxtofl,w
  8663     00A7  04A2               	iorwf	___xxtofl@arg,f
  8664     00A8  087B               	movf	??___xxtofl+1,w
  8665     00A9  04A3               	iorwf	___xxtofl@arg+1,f
  8666     00AA  087C               	movf	??___xxtofl+2,w
  8667     00AB  04A4               	iorwf	___xxtofl@arg+2,f
  8668     00AC  087D               	movf	??___xxtofl+3,w
  8669     00AD  04A5               	iorwf	___xxtofl@arg+3,f
  8670     00AE                     l3125:
  8671     00AE  0820               	movf	___xxtofl@sign,w
  8672     00AF  1903               	btfsc	3,2
  8673     00B0  28B2               	goto	u3281
  8674     00B1  28B3               	goto	u3280
  8675     00B2                     u3281:
  8676     00B2  28B8               	goto	l3131
  8677     00B3                     u3280:
  8678     00B3                     l3127:
  8679     00B3  1FF9               	btfss	___xxtofl@val+3,7
  8680     00B4  28B6               	goto	u3291
  8681     00B5  28B7               	goto	u3290
  8682     00B6                     u3291:
  8683     00B6  28B8               	goto	l3131
  8684     00B7                     u3290:
  8685     00B7                     l3129:
  8686     00B7  17A5               	bsf	___xxtofl@arg+3,7
  8687     00B8                     l3131:
  8688     00B8  0825               	movf	___xxtofl@arg+3,w
  8689     00B9  00F9               	movwf	?___xxtofl+3
  8690     00BA  0824               	movf	___xxtofl@arg+2,w
  8691     00BB  00F8               	movwf	?___xxtofl+2
  8692     00BC  0823               	movf	___xxtofl@arg+1,w
  8693     00BD  00F7               	movwf	?___xxtofl+1
  8694     00BE  0822               	movf	___xxtofl@arg,w
  8695     00BF  00F6               	movwf	?___xxtofl
  8696     00C0                     l1092:
  8697     00C0  0008               	return
  8698     00C1                     __end_of___xxtofl:
  8699                           
  8700                           	psect	text37
  8701     13DA                     __ptext37:	
  8702 ;; *************** function ___lwmod *****************
  8703 ;; Defined at:
  8704 ;;		line 5 in file "C:\Program Files\Microchip\xc8\v3.10\pic\sources\c99\common\lwmod.c"
  8705 ;; Parameters:    Size  Location     Type
  8706 ;;  divisor         2    0[COMMON] unsigned int 
  8707 ;;  dividend        2    2[COMMON] unsigned int 
  8708 ;; Auto vars:     Size  Location     Type
  8709 ;;  counter         1    4[COMMON] unsigned char 
  8710 ;; Return value:  Size  Location     Type
  8711 ;;                  2    0[COMMON] unsigned int 
  8712 ;; Registers used:
  8713 ;;		wreg, status,2, status,0
  8714 ;; Tracked objects:
  8715 ;;		On entry : 0/0
  8716 ;;		On exit  : 0/0
  8717 ;;		Unchanged: 0/0
  8718 ;; Data sizes:     COMMON   BANK0   BANK1   BANK3   BANK2
  8719 ;;      Params:         4       0       0       0       0
  8720 ;;      Locals:         1       0       0       0       0
  8721 ;;      Temps:          0       0       0       0       0
  8722 ;;      Totals:         5       0       0       0       0
  8723 ;;Total ram usage:        5 bytes
  8724 ;; Hardware stack levels used: 1
  8725 ;; This function calls:
  8726 ;;		Nothing
  8727 ;; This function is called by:
  8728 ;;		_dashboard
  8729 ;; This function uses a non-reentrant model
  8730 ;;
  8731                           
  8732     13DA                     ___lwmod:	
  8733                           ;psect for function ___lwmod
  8734                           
  8735     13DA                     l2927:	
  8736                           ;incstack = 0
  8737                           ; Regs used in ___lwmod: [wreg+status,2+status,0]
  8738                           
  8739     13DA  0870               	movf	___lwmod@divisor,w
  8740     13DB  0471               	iorwf	___lwmod@divisor+1,w
  8741     13DC  1903               	btfsc	3,2
  8742     13DD  2BDF               	goto	u2811
  8743     13DE  2BE0               	goto	u2810
  8744     13DF                     u2811:
  8745     13DF  2C0D               	goto	l2945
  8746     13E0                     u2810:
  8747     13E0                     l2929:
  8748     13E0  3001               	movlw	1
  8749     13E1  00F4               	movwf	___lwmod@counter
  8750     13E2  2BEC               	goto	l2935
  8751     13E3                     l2931:
  8752     13E3  3001               	movlw	1
  8753     13E4                     u2825:
  8754     13E4  1003               	clrc
  8755     13E5  0DF0               	rlf	___lwmod@divisor,f
  8756     13E6  0DF1               	rlf	___lwmod@divisor+1,f
  8757     13E7  3EFF               	addlw	-1
  8758     13E8  1D03               	skipz
  8759     13E9  2BE4               	goto	u2825
  8760     13EA                     l2933:
  8761     13EA  3001               	movlw	1
  8762     13EB  07F4               	addwf	___lwmod@counter,f
  8763     13EC                     l2935:
  8764     13EC  1FF1               	btfss	___lwmod@divisor+1,7
  8765     13ED  2BEF               	goto	u2831
  8766     13EE  2BF0               	goto	u2830
  8767     13EF                     u2831:
  8768     13EF  2BE3               	goto	l2931
  8769     13F0                     u2830:
  8770     13F0                     l2937:
  8771     13F0  0871               	movf	___lwmod@divisor+1,w
  8772     13F1  0273               	subwf	___lwmod@dividend+1,w
  8773     13F2  1D03               	skipz
  8774     13F3  2BF6               	goto	u2845
  8775     13F4  0870               	movf	___lwmod@divisor,w
  8776     13F5  0272               	subwf	___lwmod@dividend,w
  8777     13F6                     u2845:
  8778     13F6  1C03               	skipc
  8779     13F7  2BF9               	goto	u2841
  8780     13F8  2BFA               	goto	u2840
  8781     13F9                     u2841:
  8782     13F9  2C00               	goto	l2941
  8783     13FA                     u2840:
  8784     13FA                     l2939:
  8785     13FA  0870               	movf	___lwmod@divisor,w
  8786     13FB  02F2               	subwf	___lwmod@dividend,f
  8787     13FC  0871               	movf	___lwmod@divisor+1,w
  8788     13FD  1C03               	skipc
  8789     13FE  03F3               	decf	___lwmod@dividend+1,f
  8790     13FF  02F3               	subwf	___lwmod@dividend+1,f
  8791     1400                     l2941:
  8792     1400  3001               	movlw	1
  8793     1401                     u2855:
  8794     1401  1003               	clrc
  8795     1402  0CF1               	rrf	___lwmod@divisor+1,f
  8796     1403  0CF0               	rrf	___lwmod@divisor,f
  8797     1404  3EFF               	addlw	-1
  8798     1405  1D03               	skipz
  8799     1406  2C01               	goto	u2855
  8800     1407                     l2943:
  8801     1407  3001               	movlw	1
  8802     1408  02F4               	subwf	___lwmod@counter,f
  8803     1409  1D03               	btfss	3,2
  8804     140A  2C0C               	goto	u2861
  8805     140B  2C0D               	goto	u2860
  8806     140C                     u2861:
  8807     140C  2BF0               	goto	l2937
  8808     140D                     u2860:
  8809     140D                     l2945:
  8810     140D  0873               	movf	___lwmod@dividend+1,w
  8811     140E  00F1               	movwf	?___lwmod+1
  8812     140F  0872               	movf	___lwmod@dividend,w
  8813     1410  00F0               	movwf	?___lwmod
  8814     1411                     l939:
  8815     1411  0008               	return
  8816     1412                     __end_of___lwmod:
  8817                           
  8818                           	psect	text38
  8819     1412                     __ptext38:	
  8820 ;; *************** function ___lwdiv *****************
  8821 ;; Defined at:
  8822 ;;		line 5 in file "C:\Program Files\Microchip\xc8\v3.10\pic\sources\c99\common\lwdiv.c"
  8823 ;; Parameters:    Size  Location     Type
  8824 ;;  divisor         2    0[COMMON] unsigned int 
  8825 ;;  dividend        2    2[COMMON] unsigned int 
  8826 ;; Auto vars:     Size  Location     Type
  8827 ;;  quotient        2    4[COMMON] unsigned int 
  8828 ;;  counter         1    6[COMMON] unsigned char 
  8829 ;; Return value:  Size  Location     Type
  8830 ;;                  2    0[COMMON] unsigned int 
  8831 ;; Registers used:
  8832 ;;		wreg, status,2, status,0
  8833 ;; Tracked objects:
  8834 ;;		On entry : 0/0
  8835 ;;		On exit  : 0/0
  8836 ;;		Unchanged: 0/0
  8837 ;; Data sizes:     COMMON   BANK0   BANK1   BANK3   BANK2
  8838 ;;      Params:         4       0       0       0       0
  8839 ;;      Locals:         3       0       0       0       0
  8840 ;;      Temps:          0       0       0       0       0
  8841 ;;      Totals:         7       0       0       0       0
  8842 ;;Total ram usage:        7 bytes
  8843 ;; Hardware stack levels used: 1
  8844 ;; This function calls:
  8845 ;;		Nothing
  8846 ;; This function is called by:
  8847 ;;		_dashboard
  8848 ;;		_view_log
  8849 ;;		_download_log
  8850 ;; This function uses a non-reentrant model
  8851 ;;
  8852                           
  8853     1412                     ___lwdiv:	
  8854                           ;psect for function ___lwdiv
  8855                           
  8856     1412                     l2901:	
  8857                           ;incstack = 0
  8858                           ; Regs used in ___lwdiv: [wreg+status,2+status,0]
  8859                           
  8860     1412  01F4               	clrf	___lwdiv@quotient
  8861     1413  01F5               	clrf	___lwdiv@quotient+1
  8862     1414                     l2903:
  8863     1414  0870               	movf	___lwdiv@divisor,w
  8864     1415  0471               	iorwf	___lwdiv@divisor+1,w
  8865     1416  1903               	btfsc	3,2
  8866     1417  2C19               	goto	u2741
  8867     1418  2C1A               	goto	u2740
  8868     1419                     u2741:
  8869     1419  2C4F               	goto	l2923
  8870     141A                     u2740:
  8871     141A                     l2905:
  8872     141A  3001               	movlw	1
  8873     141B  00F6               	movwf	___lwdiv@counter
  8874     141C  2C26               	goto	l2911
  8875     141D                     l2907:
  8876     141D  3001               	movlw	1
  8877     141E                     u2755:
  8878     141E  1003               	clrc
  8879     141F  0DF0               	rlf	___lwdiv@divisor,f
  8880     1420  0DF1               	rlf	___lwdiv@divisor+1,f
  8881     1421  3EFF               	addlw	-1
  8882     1422  1D03               	skipz
  8883     1423  2C1E               	goto	u2755
  8884     1424                     l2909:
  8885     1424  3001               	movlw	1
  8886     1425  07F6               	addwf	___lwdiv@counter,f
  8887     1426                     l2911:
  8888     1426  1FF1               	btfss	___lwdiv@divisor+1,7
  8889     1427  2C29               	goto	u2761
  8890     1428  2C2A               	goto	u2760
  8891     1429                     u2761:
  8892     1429  2C1D               	goto	l2907
  8893     142A                     u2760:
  8894     142A                     l2913:
  8895     142A  3001               	movlw	1
  8896     142B                     u2775:
  8897     142B  1003               	clrc
  8898     142C  0DF4               	rlf	___lwdiv@quotient,f
  8899     142D  0DF5               	rlf	___lwdiv@quotient+1,f
  8900     142E  3EFF               	addlw	-1
  8901     142F  1D03               	skipz
  8902     1430  2C2B               	goto	u2775
  8903     1431  0871               	movf	___lwdiv@divisor+1,w
  8904     1432  0273               	subwf	___lwdiv@dividend+1,w
  8905     1433  1D03               	skipz
  8906     1434  2C37               	goto	u2785
  8907     1435  0870               	movf	___lwdiv@divisor,w
  8908     1436  0272               	subwf	___lwdiv@dividend,w
  8909     1437                     u2785:
  8910     1437  1C03               	skipc
  8911     1438  2C3A               	goto	u2781
  8912     1439  2C3B               	goto	u2780
  8913     143A                     u2781:
  8914     143A  2C42               	goto	l2919
  8915     143B                     u2780:
  8916     143B                     l2915:
  8917     143B  0870               	movf	___lwdiv@divisor,w
  8918     143C  02F2               	subwf	___lwdiv@dividend,f
  8919     143D  0871               	movf	___lwdiv@divisor+1,w
  8920     143E  1C03               	skipc
  8921     143F  03F3               	decf	___lwdiv@dividend+1,f
  8922     1440  02F3               	subwf	___lwdiv@dividend+1,f
  8923     1441                     l2917:
  8924     1441  1474               	bsf	___lwdiv@quotient,0
  8925     1442                     l2919:
  8926     1442  3001               	movlw	1
  8927     1443                     u2795:
  8928     1443  1003               	clrc
  8929     1444  0CF1               	rrf	___lwdiv@divisor+1,f
  8930     1445  0CF0               	rrf	___lwdiv@divisor,f
  8931     1446  3EFF               	addlw	-1
  8932     1447  1D03               	skipz
  8933     1448  2C43               	goto	u2795
  8934     1449                     l2921:
  8935     1449  3001               	movlw	1
  8936     144A  02F6               	subwf	___lwdiv@counter,f
  8937     144B  1D03               	btfss	3,2
  8938     144C  2C4E               	goto	u2801
  8939     144D  2C4F               	goto	u2800
  8940     144E                     u2801:
  8941     144E  2C2A               	goto	l2913
  8942     144F                     u2800:
  8943     144F                     l2923:
  8944     144F  0875               	movf	___lwdiv@quotient+1,w
  8945     1450  00F1               	movwf	?___lwdiv+1
  8946     1451  0874               	movf	___lwdiv@quotient,w
  8947     1452  00F0               	movwf	?___lwdiv
  8948     1453                     l929:
  8949     1453  0008               	return
  8950     1454                     __end_of___lwdiv:
  8951                           
  8952                           	psect	text39
  8953     1627                     __ptext39:	
  8954 ;; *************** function ___fltol *****************
  8955 ;; Defined at:
  8956 ;;		line 43 in file "C:\Program Files\Microchip\xc8\v3.10\pic\sources\c99\common\fltol.c"
  8957 ;; Parameters:    Size  Location     Type
  8958 ;;  f1              4   32[BANK0 ] unsigned int 
  8959 ;; Auto vars:     Size  Location     Type
  8960 ;;  exp1            1   41[BANK0 ] unsigned char 
  8961 ;;  sign1           1   40[BANK0 ] unsigned char 
  8962 ;; Return value:  Size  Location     Type
  8963 ;;                  4   32[BANK0 ] long 
  8964 ;; Registers used:
  8965 ;;		wreg, status,2, status,0
  8966 ;; Tracked objects:
  8967 ;;		On entry : 0/0
  8968 ;;		On exit  : 0/0
  8969 ;;		Unchanged: 0/0
  8970 ;; Data sizes:     COMMON   BANK0   BANK1   BANK3   BANK2
  8971 ;;      Params:         0       4       0       0       0
  8972 ;;      Locals:         0       2       0       0       0
  8973 ;;      Temps:          0       4       0       0       0
  8974 ;;      Totals:         0      10       0       0       0
  8975 ;;Total ram usage:       10 bytes
  8976 ;; Hardware stack levels used: 1
  8977 ;; This function calls:
  8978 ;;		Nothing
  8979 ;; This function is called by:
  8980 ;;		_dashboard
  8981 ;; This function uses a non-reentrant model
  8982 ;;
  8983                           
  8984     1627                     ___fltol:	
  8985                           ;psect for function ___fltol
  8986                           
  8987     1627                     l2865:	
  8988                           ;incstack = 0
  8989                           ; Regs used in ___fltol: [wreg+status,2+status,0]
  8990                           
  8991     1627  1003               	clrc
  8992     1628  1283               	bcf	3,5	;RP0=0, select bank0
  8993     1629  1303               	bcf	3,6	;RP1=0, select bank0
  8994     162A  0D42               	rlf	___fltol@f1+2,w
  8995     162B  0D43               	rlf	___fltol@f1+3,w
  8996     162C  00C9               	movwf	___fltol@exp1
  8997     162D  0849               	movf	___fltol@exp1,w
  8998     162E  1D03               	btfss	3,2
  8999     162F  2E31               	goto	u2641
  9000     1630  2E32               	goto	u2640
  9001     1631                     u2641:
  9002     1631  2E3B               	goto	l2871
  9003     1632                     u2640:
  9004     1632                     l2867:
  9005     1632  3000               	movlw	0
  9006     1633  00C3               	movwf	?___fltol+3
  9007     1634  3000               	movlw	0
  9008     1635  00C2               	movwf	?___fltol+2
  9009     1636  3000               	movlw	0
  9010     1637  00C1               	movwf	?___fltol+1
  9011     1638  3000               	movlw	0
  9012     1639  00C0               	movwf	?___fltol
  9013     163A  2E9C               	goto	l843
  9014     163B                     l2871:
  9015     163B  0840               	movf	___fltol@f1,w
  9016     163C  00C4               	movwf	??___fltol
  9017     163D  0841               	movf	___fltol@f1+1,w
  9018     163E  00C5               	movwf	??___fltol+1
  9019     163F  0842               	movf	___fltol@f1+2,w
  9020     1640  00C6               	movwf	??___fltol+2
  9021     1641  0843               	movf	___fltol@f1+3,w
  9022     1642  00C7               	movwf	??___fltol+3
  9023     1643  301F               	movlw	31
  9024     1644                     u2655:
  9025     1644  1003               	clrc
  9026     1645  0CC7               	rrf	??___fltol+3,f
  9027     1646  0CC6               	rrf	??___fltol+2,f
  9028     1647  0CC5               	rrf	??___fltol+1,f
  9029     1648  0CC4               	rrf	??___fltol,f
  9030     1649                     u2650:
  9031     1649  3EFF               	addlw	-1
  9032     164A  1D03               	skipz
  9033     164B  2E44               	goto	u2655
  9034     164C  0844               	movf	??___fltol,w
  9035     164D  00C8               	movwf	___fltol@sign1
  9036     164E                     l2873:
  9037     164E  17C2               	bsf	___fltol@f1+2,7
  9038     164F                     l2875:
  9039     164F  30FF               	movlw	255
  9040     1650  05C0               	andwf	___fltol@f1,f
  9041     1651  30FF               	movlw	255
  9042     1652  05C1               	andwf	___fltol@f1+1,f
  9043     1653  30FF               	movlw	255
  9044     1654  05C2               	andwf	___fltol@f1+2,f
  9045     1655  3000               	movlw	0
  9046     1656  05C3               	andwf	___fltol@f1+3,f
  9047     1657                     l2877:
  9048     1657  3096               	movlw	150
  9049     1658  02C9               	subwf	___fltol@exp1,f
  9050     1659                     l2879:
  9051     1659  1FC9               	btfss	___fltol@exp1,7
  9052     165A  2E5C               	goto	u2661
  9053     165B  2E5D               	goto	u2660
  9054     165C                     u2661:
  9055     165C  2E75               	goto	l2889
  9056     165D                     u2660:
  9057     165D                     l2881:
  9058     165D  0849               	movf	___fltol@exp1,w
  9059     165E  3A80               	xorlw	128
  9060     165F  3E97               	addlw	151
  9061     1660  1803               	skipnc
  9062     1661  2E63               	goto	u2671
  9063     1662  2E64               	goto	u2670
  9064     1663                     u2671:
  9065     1663  2E65               	goto	l2887
  9066     1664                     u2670:
  9067     1664  2E32               	goto	l2867
  9068     1665                     l2887:
  9069     1665  3001               	movlw	1
  9070     1666                     u2685:
  9071     1666  1003               	clrc
  9072     1667  0CC3               	rrf	___fltol@f1+3,f
  9073     1668  0CC2               	rrf	___fltol@f1+2,f
  9074     1669  0CC1               	rrf	___fltol@f1+1,f
  9075     166A  0CC0               	rrf	___fltol@f1,f
  9076     166B  3EFF               	addlw	-1
  9077     166C  1D03               	skipz
  9078     166D  2E66               	goto	u2685
  9079     166E  3001               	movlw	1
  9080     166F  07C9               	addwf	___fltol@exp1,f
  9081     1670  1D03               	btfss	3,2
  9082     1671  2E73               	goto	u2691
  9083     1672  2E74               	goto	u2690
  9084     1673                     u2691:
  9085     1673  2E65               	goto	l2887
  9086     1674                     u2690:
  9087     1674  2E8C               	goto	l2897
  9088     1675                     l2889:
  9089     1675  3020               	movlw	32
  9090     1676  0249               	subwf	___fltol@exp1,w
  9091     1677  1C03               	skipc
  9092     1678  2E7A               	goto	u2701
  9093     1679  2E7B               	goto	u2700
  9094     167A                     u2701:
  9095     167A  2E87               	goto	l850
  9096     167B                     u2700:
  9097     167B  2E32               	goto	l2867
  9098     167C                     l2895:
  9099     167C  3001               	movlw	1
  9100     167D  00C4               	movwf	??___fltol
  9101     167E                     u2715:
  9102     167E  1003               	clrc
  9103     167F  0DC0               	rlf	___fltol@f1,f
  9104     1680  0DC1               	rlf	___fltol@f1+1,f
  9105     1681  0DC2               	rlf	___fltol@f1+2,f
  9106     1682  0DC3               	rlf	___fltol@f1+3,f
  9107     1683  0BC4               	decfsz	??___fltol,f
  9108     1684  2E7E               	goto	u2715
  9109     1685  3001               	movlw	1
  9110     1686  02C9               	subwf	___fltol@exp1,f
  9111     1687                     l850:
  9112     1687  0849               	movf	___fltol@exp1,w
  9113     1688  1D03               	btfss	3,2
  9114     1689  2E8B               	goto	u2721
  9115     168A  2E8C               	goto	u2720
  9116     168B                     u2721:
  9117     168B  2E7C               	goto	l2895
  9118     168C                     u2720:
  9119     168C                     l2897:
  9120     168C  0848               	movf	___fltol@sign1,w
  9121     168D  1903               	btfsc	3,2
  9122     168E  2E90               	goto	u2731
  9123     168F  2E91               	goto	u2730
  9124     1690                     u2731:
  9125     1690  2E9C               	goto	l853
  9126     1691                     u2730:
  9127     1691                     l2899:
  9128     1691  09C0               	comf	___fltol@f1,f
  9129     1692  09C1               	comf	___fltol@f1+1,f
  9130     1693  09C2               	comf	___fltol@f1+2,f
  9131     1694  09C3               	comf	___fltol@f1+3,f
  9132     1695  0AC0               	incf	___fltol@f1,f
  9133     1696  1903               	skipnz
  9134     1697  0AC1               	incf	___fltol@f1+1,f
  9135     1698  1903               	skipnz
  9136     1699  0AC2               	incf	___fltol@f1+2,f
  9137     169A  1903               	skipnz
  9138     169B  0AC3               	incf	___fltol@f1+3,f
  9139     169C                     l853:
  9140     169C                     l843:
  9141     169C  0008               	return
  9142     169D                     __end_of___fltol:
  9143                           
  9144                           	psect	text40
  9145     00C1                     __ptext40:	
  9146 ;; *************** function ___fldiv *****************
  9147 ;; Defined at:
  9148 ;;		line 8 in file "C:\Program Files\Microchip\xc8\v3.10\pic\sources\c99\common\sprcdiv.c"
  9149 ;; Parameters:    Size  Location     Type
  9150 ;;  a               4    6[BANK0 ] long 
  9151 ;;  b               4   10[BANK0 ] long 
  9152 ;; Auto vars:     Size  Location     Type
  9153 ;;  grs             4   26[BANK0 ] unsigned long 
  9154 ;;  rem             4   19[BANK0 ] unsigned long 
  9155 ;;  new_exp         2   24[BANK0 ] short 
  9156 ;;  aexp            1   31[BANK0 ] unsigned char 
  9157 ;;  bexp            1   30[BANK0 ] unsigned char 
  9158 ;;  sign            1   23[BANK0 ] unsigned char 
  9159 ;; Return value:  Size  Location     Type
  9160 ;;                  4    6[BANK0 ] unsigned char 
  9161 ;; Registers used:
  9162 ;;		wreg, status,2, status,0, btemp1
  9163 ;; Tracked objects:
  9164 ;;		On entry : 0/0
  9165 ;;		On exit  : 0/0
  9166 ;;		Unchanged: 0/0
  9167 ;; Data sizes:     COMMON   BANK0   BANK1   BANK3   BANK2
  9168 ;;      Params:         0       8       0       0       0
  9169 ;;      Locals:         0      13       0       0       0
  9170 ;;      Temps:          0       5       0       0       0
  9171 ;;      Totals:         0      26       0       0       0
  9172 ;;Total ram usage:       26 bytes
  9173 ;; Hardware stack levels used: 1
  9174 ;; This function calls:
  9175 ;;		Nothing
  9176 ;; This function is called by:
  9177 ;;		_dashboard
  9178 ;; This function uses a non-reentrant model
  9179 ;;
  9180                           
  9181     00C1                     ___fldiv:	
  9182                           ;psect for function ___fldiv
  9183                           
  9184     00C1                     l2949:	
  9185                           ;incstack = 0
  9186                           ; Regs used in ___fldiv: [wreg+status,2+status,0+btemp1]
  9187                           
  9188     00C1  1283               	bcf	3,5	;RP0=0, select bank0
  9189     00C2  1303               	bcf	3,6	;RP1=0, select bank0
  9190     00C3  082D               	movf	___fldiv@b+3,w
  9191     00C4  00B7               	movwf	___fldiv@sign
  9192     00C5                     l2951:
  9193     00C5  3080               	movlw	128
  9194     00C6  05B7               	andwf	___fldiv@sign,f
  9195     00C7                     l2953:
  9196     00C7  082D               	movf	___fldiv@b+3,w
  9197     00C8  00AE               	movwf	??___fldiv
  9198     00C9  072E               	addwf	??___fldiv,w
  9199     00CA  00BE               	movwf	___fldiv@bexp
  9200     00CB                     l2955:
  9201     00CB  1FAC               	btfss	___fldiv@b+2,7
  9202     00CC  28CE               	goto	u2871
  9203     00CD  28CF               	goto	u2870
  9204     00CE                     u2871:
  9205     00CE  28D0               	goto	l2959
  9206     00CF                     u2870:
  9207     00CF                     l2957:
  9208     00CF  143E               	bsf	___fldiv@bexp,0
  9209     00D0                     l2959:
  9210     00D0  083E               	movf	___fldiv@bexp,w
  9211     00D1  1903               	btfsc	3,2
  9212     00D2  28D4               	goto	u2881
  9213     00D3  28D5               	goto	u2880
  9214     00D4                     u2881:
  9215     00D4  28E5               	goto	l2969
  9216     00D5                     u2880:
  9217     00D5                     l2961:
  9218     00D5  0A3E               	incf	___fldiv@bexp,w
  9219     00D6  1D03               	btfss	3,2
  9220     00D7  28D9               	goto	u2891
  9221     00D8  28DA               	goto	u2890
  9222     00D9                     u2891:
  9223     00D9  28E2               	goto	l2965
  9224     00DA                     u2890:
  9225     00DA                     l2963:
  9226     00DA  3000               	movlw	0
  9227     00DB  00AD               	movwf	___fldiv@b+3
  9228     00DC  3000               	movlw	0
  9229     00DD  00AC               	movwf	___fldiv@b+2
  9230     00DE  3000               	movlw	0
  9231     00DF  00AB               	movwf	___fldiv@b+1
  9232     00E0  3000               	movlw	0
  9233     00E1  00AA               	movwf	___fldiv@b
  9234     00E2                     l2965:
  9235     00E2  17AC               	bsf	___fldiv@b+2,7
  9236     00E3                     l2967:
  9237     00E3  01AD               	clrf	___fldiv@b+3
  9238     00E4  28ED               	goto	l2971
  9239     00E5                     l2969:
  9240     00E5  3000               	movlw	0
  9241     00E6  00AD               	movwf	___fldiv@b+3
  9242     00E7  3000               	movlw	0
  9243     00E8  00AC               	movwf	___fldiv@b+2
  9244     00E9  3000               	movlw	0
  9245     00EA  00AB               	movwf	___fldiv@b+1
  9246     00EB  3000               	movlw	0
  9247     00EC  00AA               	movwf	___fldiv@b
  9248     00ED                     l2971:
  9249     00ED  0829               	movf	___fldiv@a+3,w
  9250     00EE  3980               	andlw	128
  9251     00EF  06B7               	xorwf	___fldiv@sign,f
  9252     00F0                     l2973:
  9253     00F0  0829               	movf	___fldiv@a+3,w
  9254     00F1  00AE               	movwf	??___fldiv
  9255     00F2  072E               	addwf	??___fldiv,w
  9256     00F3  00BF               	movwf	___fldiv@aexp
  9257     00F4                     l2975:
  9258     00F4  1FA8               	btfss	___fldiv@a+2,7
  9259     00F5  28F7               	goto	u2901
  9260     00F6  28F8               	goto	u2900
  9261     00F7                     u2901:
  9262     00F7  28F9               	goto	l2979
  9263     00F8                     u2900:
  9264     00F8                     l2977:
  9265     00F8  143F               	bsf	___fldiv@aexp,0
  9266     00F9                     l2979:
  9267     00F9  083F               	movf	___fldiv@aexp,w
  9268     00FA  1903               	btfsc	3,2
  9269     00FB  28FD               	goto	u2911
  9270     00FC  28FE               	goto	u2910
  9271     00FD                     u2911:
  9272     00FD  290E               	goto	l2989
  9273     00FE                     u2910:
  9274     00FE                     l2981:
  9275     00FE  0A3F               	incf	___fldiv@aexp,w
  9276     00FF  1D03               	btfss	3,2
  9277     0100  2902               	goto	u2921
  9278     0101  2903               	goto	u2920
  9279     0102                     u2921:
  9280     0102  290B               	goto	l2985
  9281     0103                     u2920:
  9282     0103                     l2983:
  9283     0103  3000               	movlw	0
  9284     0104  00A9               	movwf	___fldiv@a+3
  9285     0105  3000               	movlw	0
  9286     0106  00A8               	movwf	___fldiv@a+2
  9287     0107  3000               	movlw	0
  9288     0108  00A7               	movwf	___fldiv@a+1
  9289     0109  3000               	movlw	0
  9290     010A  00A6               	movwf	___fldiv@a
  9291     010B                     l2985:
  9292     010B  17A8               	bsf	___fldiv@a+2,7
  9293     010C                     l2987:
  9294     010C  01A9               	clrf	___fldiv@a+3
  9295     010D  2916               	goto	l1006
  9296     010E                     l2989:
  9297     010E  3000               	movlw	0
  9298     010F  00A9               	movwf	___fldiv@a+3
  9299     0110  3000               	movlw	0
  9300     0111  00A8               	movwf	___fldiv@a+2
  9301     0112  3000               	movlw	0
  9302     0113  00A7               	movwf	___fldiv@a+1
  9303     0114  3000               	movlw	0
  9304     0115  00A6               	movwf	___fldiv@a
  9305     0116                     l1006:
  9306     0116  0829               	movf	___fldiv@a+3,w
  9307     0117  0428               	iorwf	___fldiv@a+2,w
  9308     0118  0427               	iorwf	___fldiv@a+1,w
  9309     0119  0426               	iorwf	___fldiv@a,w
  9310     011A  1D03               	skipz
  9311     011B  291D               	goto	u2931
  9312     011C  291E               	goto	u2930
  9313     011D                     u2931:
  9314     011D  2935               	goto	l2999
  9315     011E                     u2930:
  9316     011E                     l2991:
  9317     011E  3000               	movlw	0
  9318     011F  00AD               	movwf	___fldiv@b+3
  9319     0120  3000               	movlw	0
  9320     0121  00AC               	movwf	___fldiv@b+2
  9321     0122  3000               	movlw	0
  9322     0123  00AB               	movwf	___fldiv@b+1
  9323     0124  3000               	movlw	0
  9324     0125  00AA               	movwf	___fldiv@b
  9325     0126  3080               	movlw	128
  9326     0127  04AC               	iorwf	___fldiv@b+2,f
  9327     0128  307F               	movlw	127
  9328     0129  04AD               	iorwf	___fldiv@b+3,f
  9329     012A                     l2993:
  9330     012A  0837               	movf	___fldiv@sign,w
  9331     012B  04AD               	iorwf	___fldiv@b+3,f
  9332     012C                     l2995:
  9333     012C  082D               	movf	___fldiv@b+3,w
  9334     012D  00A9               	movwf	?___fldiv+3
  9335     012E  082C               	movf	___fldiv@b+2,w
  9336     012F  00A8               	movwf	?___fldiv+2
  9337     0130  082B               	movf	___fldiv@b+1,w
  9338     0131  00A7               	movwf	?___fldiv+1
  9339     0132  082A               	movf	___fldiv@b,w
  9340     0133  00A6               	movwf	?___fldiv
  9341     0134  2A8A               	goto	l1008
  9342     0135                     l2999:
  9343     0135  083E               	movf	___fldiv@bexp,w
  9344     0136  1D03               	btfss	3,2
  9345     0137  2939               	goto	u2941
  9346     0138  293A               	goto	u2940
  9347     0139                     u2941:
  9348     0139  2943               	goto	l3005
  9349     013A                     u2940:
  9350     013A                     l3001:
  9351     013A  3000               	movlw	0
  9352     013B  00A9               	movwf	?___fldiv+3
  9353     013C  3000               	movlw	0
  9354     013D  00A8               	movwf	?___fldiv+2
  9355     013E  3000               	movlw	0
  9356     013F  00A7               	movwf	?___fldiv+1
  9357     0140  3000               	movlw	0
  9358     0141  00A6               	movwf	?___fldiv
  9359     0142  2A8A               	goto	l1008
  9360     0143                     l3005:
  9361     0143  083E               	movf	___fldiv@bexp,w
  9362     0144  00AE               	movwf	??___fldiv
  9363     0145  01AF               	clrf	??___fldiv+1
  9364     0146  082F               	movf	??___fldiv+1,w
  9365     0147  00B1               	movwf	??___fldiv+3
  9366     0148  083F               	movf	___fldiv@aexp,w
  9367     0149  022E               	subwf	??___fldiv,w
  9368     014A  00B0               	movwf	??___fldiv+2
  9369     014B  1C03               	skipc
  9370     014C  03B1               	decf	??___fldiv+3,f
  9371     014D  0830               	movf	??___fldiv+2,w
  9372     014E  3E7F               	addlw	127
  9373     014F  00B8               	movwf	___fldiv@new_exp
  9374     0150  0831               	movf	??___fldiv+3,w
  9375     0151  1803               	skipnc
  9376     0152  3E01               	addlw	1
  9377     0153  3E00               	addlw	0
  9378     0154  00B9               	movwf	___fldiv@new_exp+1
  9379     0155                     l3007:
  9380     0155  082D               	movf	___fldiv@b+3,w
  9381     0156  00B6               	movwf	___fldiv@rem+3
  9382     0157  082C               	movf	___fldiv@b+2,w
  9383     0158  00B5               	movwf	___fldiv@rem+2
  9384     0159  082B               	movf	___fldiv@b+1,w
  9385     015A  00B4               	movwf	___fldiv@rem+1
  9386     015B  082A               	movf	___fldiv@b,w
  9387     015C  00B3               	movwf	___fldiv@rem
  9388     015D                     l3009:
  9389     015D  3000               	movlw	0
  9390     015E  00AD               	movwf	___fldiv@b+3
  9391     015F  3000               	movlw	0
  9392     0160  00AC               	movwf	___fldiv@b+2
  9393     0161  3000               	movlw	0
  9394     0162  00AB               	movwf	___fldiv@b+1
  9395     0163  3000               	movlw	0
  9396     0164  00AA               	movwf	___fldiv@b
  9397     0165                     l3011:
  9398     0165  3000               	movlw	0
  9399     0166  00BD               	movwf	___fldiv@grs+3
  9400     0167  3000               	movlw	0
  9401     0168  00BC               	movwf	___fldiv@grs+2
  9402     0169  3000               	movlw	0
  9403     016A  00BB               	movwf	___fldiv@grs+1
  9404     016B  3000               	movlw	0
  9405     016C  00BA               	movwf	___fldiv@grs
  9406     016D                     l3013:
  9407     016D  01BF               	clrf	___fldiv@aexp
  9408     016E  29B7               	goto	l3033
  9409     016F                     l3015:
  9410     016F  083F               	movf	___fldiv@aexp,w
  9411     0170  1903               	btfsc	3,2
  9412     0171  2973               	goto	u2951
  9413     0172  2974               	goto	u2950
  9414     0173                     u2951:
  9415     0173  2994               	goto	l3025
  9416     0174                     u2950:
  9417     0174                     l3017:
  9418     0174  3001               	movlw	1
  9419     0175  00AE               	movwf	??___fldiv
  9420     0176                     u2965:
  9421     0176  1003               	clrc
  9422     0177  0DB3               	rlf	___fldiv@rem,f
  9423     0178  0DB4               	rlf	___fldiv@rem+1,f
  9424     0179  0DB5               	rlf	___fldiv@rem+2,f
  9425     017A  0DB6               	rlf	___fldiv@rem+3,f
  9426     017B  0BAE               	decfsz	??___fldiv,f
  9427     017C  2976               	goto	u2965
  9428     017D  3001               	movlw	1
  9429     017E  00AE               	movwf	??___fldiv
  9430     017F                     u2975:
  9431     017F  1003               	clrc
  9432     0180  0DAA               	rlf	___fldiv@b,f
  9433     0181  0DAB               	rlf	___fldiv@b+1,f
  9434     0182  0DAC               	rlf	___fldiv@b+2,f
  9435     0183  0DAD               	rlf	___fldiv@b+3,f
  9436     0184  0BAE               	decfsz	??___fldiv,f
  9437     0185  297F               	goto	u2975
  9438     0186                     l3019:
  9439     0186  1FBD               	btfss	___fldiv@grs+3,7
  9440     0187  2989               	goto	u2981
  9441     0188  298A               	goto	u2980
  9442     0189                     u2981:
  9443     0189  298B               	goto	l3023
  9444     018A                     u2980:
  9445     018A                     l3021:
  9446     018A  142A               	bsf	___fldiv@b,0
  9447     018B                     l3023:
  9448     018B  3001               	movlw	1
  9449     018C  00AE               	movwf	??___fldiv
  9450     018D                     u2995:
  9451     018D  1003               	clrc
  9452     018E  0DBA               	rlf	___fldiv@grs,f
  9453     018F  0DBB               	rlf	___fldiv@grs+1,f
  9454     0190  0DBC               	rlf	___fldiv@grs+2,f
  9455     0191  0DBD               	rlf	___fldiv@grs+3,f
  9456     0192  0BAE               	decfsz	??___fldiv,f
  9457     0193  298D               	goto	u2995
  9458     0194                     l3025:
  9459     0194  0829               	movf	___fldiv@a+3,w
  9460     0195  0236               	subwf	___fldiv@rem+3,w
  9461     0196  1D03               	skipz
  9462     0197  29A2               	goto	u3005
  9463     0198  0828               	movf	___fldiv@a+2,w
  9464     0199  0235               	subwf	___fldiv@rem+2,w
  9465     019A  1D03               	skipz
  9466     019B  29A2               	goto	u3005
  9467     019C  0827               	movf	___fldiv@a+1,w
  9468     019D  0234               	subwf	___fldiv@rem+1,w
  9469     019E  1D03               	skipz
  9470     019F  29A2               	goto	u3005
  9471     01A0  0826               	movf	___fldiv@a,w
  9472     01A1  0233               	subwf	___fldiv@rem,w
  9473     01A2                     u3005:
  9474     01A2  1C03               	skipc
  9475     01A3  29A5               	goto	u3001
  9476     01A4  29A6               	goto	u3000
  9477     01A5                     u3001:
  9478     01A5  29B5               	goto	l3031
  9479     01A6                     u3000:
  9480     01A6                     l3027:
  9481     01A6  173D               	bsf	___fldiv@grs+3,6
  9482     01A7                     l3029:
  9483     01A7  0826               	movf	___fldiv@a,w
  9484     01A8  02B3               	subwf	___fldiv@rem,f
  9485     01A9  0827               	movf	___fldiv@a+1,w
  9486     01AA  1C03               	skipc
  9487     01AB  0F27               	incfsz	___fldiv@a+1,w
  9488     01AC  02B4               	subwf	___fldiv@rem+1,f
  9489     01AD  0828               	movf	___fldiv@a+2,w
  9490     01AE  1C03               	skipc
  9491     01AF  0F28               	incfsz	___fldiv@a+2,w
  9492     01B0  02B5               	subwf	___fldiv@rem+2,f
  9493     01B1  0829               	movf	___fldiv@a+3,w
  9494     01B2  1C03               	skipc
  9495     01B3  0F29               	incfsz	___fldiv@a+3,w
  9496     01B4  02B6               	subwf	___fldiv@rem+3,f
  9497     01B5                     l3031:
  9498     01B5  3001               	movlw	1
  9499     01B6  07BF               	addwf	___fldiv@aexp,f
  9500     01B7                     l3033:
  9501     01B7  301A               	movlw	26
  9502     01B8  023F               	subwf	___fldiv@aexp,w
  9503     01B9  1C03               	skipc
  9504     01BA  29BC               	goto	u3011
  9505     01BB  29BD               	goto	u3010
  9506     01BC                     u3011:
  9507     01BC  296F               	goto	l3015
  9508     01BD                     u3010:
  9509     01BD                     l3035:
  9510     01BD  0836               	movf	___fldiv@rem+3,w
  9511     01BE  0435               	iorwf	___fldiv@rem+2,w
  9512     01BF  0434               	iorwf	___fldiv@rem+1,w
  9513     01C0  0433               	iorwf	___fldiv@rem,w
  9514     01C1  1903               	skipnz
  9515     01C2  29C4               	goto	u3021
  9516     01C3  29C5               	goto	u3020
  9517     01C4                     u3021:
  9518     01C4  29E4               	goto	l3049
  9519     01C5                     u3020:
  9520     01C5                     l3037:
  9521     01C5  143A               	bsf	___fldiv@grs,0
  9522     01C6  29E4               	goto	l3049
  9523     01C7                     l3039:
  9524     01C7  3001               	movlw	1
  9525     01C8  00AE               	movwf	??___fldiv
  9526     01C9                     u3035:
  9527     01C9  1003               	clrc
  9528     01CA  0DAA               	rlf	___fldiv@b,f
  9529     01CB  0DAB               	rlf	___fldiv@b+1,f
  9530     01CC  0DAC               	rlf	___fldiv@b+2,f
  9531     01CD  0DAD               	rlf	___fldiv@b+3,f
  9532     01CE  0BAE               	decfsz	??___fldiv,f
  9533     01CF  29C9               	goto	u3035
  9534     01D0                     l3041:
  9535     01D0  1FBD               	btfss	___fldiv@grs+3,7
  9536     01D1  29D3               	goto	u3041
  9537     01D2  29D4               	goto	u3040
  9538     01D3                     u3041:
  9539     01D3  29D5               	goto	l3045
  9540     01D4                     u3040:
  9541     01D4                     l3043:
  9542     01D4  142A               	bsf	___fldiv@b,0
  9543     01D5                     l3045:
  9544     01D5  3001               	movlw	1
  9545     01D6  00AE               	movwf	??___fldiv
  9546     01D7                     u3055:
  9547     01D7  1003               	clrc
  9548     01D8  0DBA               	rlf	___fldiv@grs,f
  9549     01D9  0DBB               	rlf	___fldiv@grs+1,f
  9550     01DA  0DBC               	rlf	___fldiv@grs+2,f
  9551     01DB  0DBD               	rlf	___fldiv@grs+3,f
  9552     01DC  0BAE               	decfsz	??___fldiv,f
  9553     01DD  29D7               	goto	u3055
  9554     01DE                     l3047:
  9555     01DE  30FF               	movlw	255
  9556     01DF  07B8               	addwf	___fldiv@new_exp,f
  9557     01E0  1803               	skipnc
  9558     01E1  0AB9               	incf	___fldiv@new_exp+1,f
  9559     01E2  30FF               	movlw	255
  9560     01E3  07B9               	addwf	___fldiv@new_exp+1,f
  9561     01E4                     l3049:
  9562     01E4  1FAC               	btfss	___fldiv@b+2,7
  9563     01E5  29E7               	goto	u3061
  9564     01E6  29E8               	goto	u3060
  9565     01E7                     u3061:
  9566     01E7  29C7               	goto	l3039
  9567     01E8                     u3060:
  9568     01E8                     l3051:
  9569     01E8  01BF               	clrf	___fldiv@aexp
  9570     01E9                     l3053:
  9571     01E9  1FBD               	btfss	___fldiv@grs+3,7
  9572     01EA  29EC               	goto	u3071
  9573     01EB  29ED               	goto	u3070
  9574     01EC                     u3071:
  9575     01EC  2A09               	goto	l3061
  9576     01ED                     u3070:
  9577     01ED                     l3055:
  9578     01ED  30FF               	movlw	255
  9579     01EE  053A               	andwf	___fldiv@grs,w
  9580     01EF  00AE               	movwf	??___fldiv
  9581     01F0  30FF               	movlw	255
  9582     01F1  053B               	andwf	___fldiv@grs+1,w
  9583     01F2  00AF               	movwf	??___fldiv+1
  9584     01F3  30FF               	movlw	255
  9585     01F4  053C               	andwf	___fldiv@grs+2,w
  9586     01F5  00B0               	movwf	??___fldiv+2
  9587     01F6  307F               	movlw	127
  9588     01F7  053D               	andwf	___fldiv@grs+3,w
  9589     01F8  00B1               	movwf	??___fldiv+3
  9590     01F9  0831               	movf	??___fldiv+3,w
  9591     01FA  0430               	iorwf	??___fldiv+2,w
  9592     01FB  042F               	iorwf	??___fldiv+1,w
  9593     01FC  042E               	iorwf	??___fldiv,w
  9594     01FD  1903               	skipnz
  9595     01FE  2A00               	goto	u3081
  9596     01FF  2A01               	goto	u3080
  9597     0200                     u3081:
  9598     0200  2A04               	goto	l1022
  9599     0201                     u3080:
  9600     0201                     l3057:
  9601     0201  3001               	movlw	1
  9602     0202  00BF               	movwf	___fldiv@aexp
  9603     0203  2A09               	goto	l3061
  9604     0204                     l1022:
  9605     0204  1C2A               	btfss	___fldiv@b,0
  9606     0205  2A07               	goto	u3091
  9607     0206  2A08               	goto	u3090
  9608     0207                     u3091:
  9609     0207  2A09               	goto	l3061
  9610     0208                     u3090:
  9611     0208  2A01               	goto	l3057
  9612     0209                     l3061:
  9613     0209  083F               	movf	___fldiv@aexp,w
  9614     020A  1903               	btfsc	3,2
  9615     020B  2A0D               	goto	u3101
  9616     020C  2A0E               	goto	u3100
  9617     020D                     u3101:
  9618     020D  2A3F               	goto	l3071
  9619     020E                     u3100:
  9620     020E                     l3063:
  9621     020E  3001               	movlw	1
  9622     020F  07AA               	addwf	___fldiv@b,f
  9623     0210  3000               	movlw	0
  9624     0211  1803               	skipnc
  9625     0212  3001               	movlw	1
  9626     0213  07AB               	addwf	___fldiv@b+1,f
  9627     0214  3000               	movlw	0
  9628     0215  1803               	skipnc
  9629     0216  3001               	movlw	1
  9630     0217  07AC               	addwf	___fldiv@b+2,f
  9631     0218  3000               	movlw	0
  9632     0219  1803               	skipnc
  9633     021A  3001               	movlw	1
  9634     021B  07AD               	addwf	___fldiv@b+3,f
  9635     021C                     l3065:
  9636     021C  1C2D               	btfss	___fldiv@b+3,0
  9637     021D  2A1F               	goto	u3111
  9638     021E  2A20               	goto	u3110
  9639     021F                     u3111:
  9640     021F  2A3F               	goto	l3071
  9641     0220                     u3110:
  9642     0220                     l3067:
  9643     0220  082A               	movf	___fldiv@b,w
  9644     0221  00AE               	movwf	??___fldiv
  9645     0222  082B               	movf	___fldiv@b+1,w
  9646     0223  00AF               	movwf	??___fldiv+1
  9647     0224  082C               	movf	___fldiv@b+2,w
  9648     0225  00B0               	movwf	??___fldiv+2
  9649     0226  082D               	movf	___fldiv@b+3,w
  9650     0227  00B1               	movwf	??___fldiv+3
  9651     0228  3001               	movlw	1
  9652     0229  00B2               	movwf	??___fldiv+4
  9653     022A                     u3125:
  9654     022A  0D31               	rlf	??___fldiv+3,w
  9655     022B  0CB1               	rrf	??___fldiv+3,f
  9656     022C  0CB0               	rrf	??___fldiv+2,f
  9657     022D  0CAF               	rrf	??___fldiv+1,f
  9658     022E  0CAE               	rrf	??___fldiv,f
  9659     022F                     u3120:
  9660     022F  0BB2               	decfsz	??___fldiv+4,f
  9661     0230  2A2A               	goto	u3125
  9662     0231  0831               	movf	??___fldiv+3,w
  9663     0232  00AD               	movwf	___fldiv@b+3
  9664     0233  0830               	movf	??___fldiv+2,w
  9665     0234  00AC               	movwf	___fldiv@b+2
  9666     0235  082F               	movf	??___fldiv+1,w
  9667     0236  00AB               	movwf	___fldiv@b+1
  9668     0237  082E               	movf	??___fldiv,w
  9669     0238  00AA               	movwf	___fldiv@b
  9670     0239                     l3069:
  9671     0239  3001               	movlw	1
  9672     023A  07B8               	addwf	___fldiv@new_exp,f
  9673     023B  1803               	skipnc
  9674     023C  0AB9               	incf	___fldiv@new_exp+1,f
  9675     023D  3000               	movlw	0
  9676     023E  07B9               	addwf	___fldiv@new_exp+1,f
  9677     023F                     l3071:
  9678     023F  0839               	movf	___fldiv@new_exp+1,w
  9679     0240  3A80               	xorlw	128
  9680     0241  00FF               	movwf	btemp1
  9681     0242  3080               	movlw	128
  9682     0243  027F               	subwf	btemp1,w
  9683     0244  1D03               	skipz
  9684     0245  2A48               	goto	u3135
  9685     0246  30FF               	movlw	255
  9686     0247  0238               	subwf	___fldiv@new_exp,w
  9687     0248                     u3135:
  9688     0248  1C03               	skipc
  9689     0249  2A4B               	goto	u3131
  9690     024A  2A4C               	goto	u3130
  9691     024B                     u3131:
  9692     024B  2A5A               	goto	l3075
  9693     024C                     u3130:
  9694     024C                     l3073:
  9695     024C  30FF               	movlw	255
  9696     024D  1283               	bcf	3,5	;RP0=0, select bank0
  9697     024E  1303               	bcf	3,6	;RP1=0, select bank0
  9698     024F  00B8               	movwf	___fldiv@new_exp
  9699     0250  3000               	movlw	0
  9700     0251  00B9               	movwf	___fldiv@new_exp+1
  9701     0252  3000               	movlw	0
  9702     0253  00AD               	movwf	___fldiv@b+3
  9703     0254  3000               	movlw	0
  9704     0255  00AC               	movwf	___fldiv@b+2
  9705     0256  3000               	movlw	0
  9706     0257  00AB               	movwf	___fldiv@b+1
  9707     0258  3000               	movlw	0
  9708     0259  00AA               	movwf	___fldiv@b
  9709     025A                     l3075:
  9710     025A  1283               	bcf	3,5	;RP0=0, select bank0
  9711     025B  1303               	bcf	3,6	;RP1=0, select bank0
  9712     025C  0839               	movf	___fldiv@new_exp+1,w
  9713     025D  3A80               	xorlw	128
  9714     025E  00FF               	movwf	btemp1
  9715     025F  3080               	movlw	128
  9716     0260  027F               	subwf	btemp1,w
  9717     0261  1D03               	skipz
  9718     0262  2A65               	goto	u3145
  9719     0263  3001               	movlw	1
  9720     0264  0238               	subwf	___fldiv@new_exp,w
  9721     0265                     u3145:
  9722     0265  1803               	skipnc
  9723     0266  2A68               	goto	u3141
  9724     0267  2A69               	goto	u3140
  9725     0268                     u3141:
  9726     0268  2A76               	goto	l1028
  9727     0269                     u3140:
  9728     0269                     l3077:
  9729     0269  1283               	bcf	3,5	;RP0=0, select bank0
  9730     026A  1303               	bcf	3,6	;RP1=0, select bank0
  9731     026B  01B8               	clrf	___fldiv@new_exp
  9732     026C  01B9               	clrf	___fldiv@new_exp+1
  9733     026D                     l3079:
  9734     026D  3000               	movlw	0
  9735     026E  00AD               	movwf	___fldiv@b+3
  9736     026F  3000               	movlw	0
  9737     0270  00AC               	movwf	___fldiv@b+2
  9738     0271  3000               	movlw	0
  9739     0272  00AB               	movwf	___fldiv@b+1
  9740     0273  3000               	movlw	0
  9741     0274  00AA               	movwf	___fldiv@b
  9742     0275                     l3081:
  9743     0275  01B7               	clrf	___fldiv@sign
  9744     0276                     l1028:
  9745     0276  1283               	bcf	3,5	;RP0=0, select bank0
  9746     0277  1303               	bcf	3,6	;RP1=0, select bank0
  9747     0278  0838               	movf	___fldiv@new_exp,w
  9748     0279  00BE               	movwf	___fldiv@bexp
  9749     027A                     l3083:
  9750     027A  1C3E               	btfss	___fldiv@bexp,0
  9751     027B  2A7D               	goto	u3151
  9752     027C  2A7E               	goto	u3150
  9753     027D                     u3151:
  9754     027D  2A80               	goto	l3087
  9755     027E                     u3150:
  9756     027E                     l3085:
  9757     027E  17AC               	bsf	___fldiv@b+2,7
  9758     027F  2A82               	goto	l1030
  9759     0280                     l3087:
  9760     0280  307F               	movlw	127
  9761     0281  05AC               	andwf	___fldiv@b+2,f
  9762     0282                     l1030:
  9763     0282  083E               	movf	___fldiv@bexp,w
  9764     0283  00AE               	movwf	??___fldiv
  9765     0284  1003               	clrc
  9766     0285  0C2E               	rrf	??___fldiv,w
  9767     0286  00AD               	movwf	___fldiv@b+3
  9768     0287  0837               	movf	___fldiv@sign,w
  9769     0288  04AD               	iorwf	___fldiv@b+3,f
  9770     0289  292C               	goto	l2995
  9771     028A                     l1008:
  9772     028A  0008               	return
  9773     028B                     __end_of___fldiv:
  9774                           
  9775                           	psect	text41
  9776     11BD                     __ptext41:	
  9777 ;; *************** function _clear_log *****************
  9778 ;; Defined at:
  9779 ;;		line 108 in file "view_log.c"
  9780 ;; Parameters:    Size  Location     Type
  9781 ;;		None
  9782 ;; Auto vars:     Size  Location     Type
  9783 ;;		None
  9784 ;; Return value:  Size  Location     Type
  9785 ;;                  1    wreg      void 
  9786 ;; Registers used:
  9787 ;;		wreg, fsr0l, fsr0h, status,2, status,0, pclath, btemp1, cstack
  9788 ;; Tracked objects:
  9789 ;;		On entry : 0/0
  9790 ;;		On exit  : 0/0
  9791 ;;		Unchanged: 0/0
  9792 ;; Data sizes:     COMMON   BANK0   BANK1   BANK3   BANK2
  9793 ;;      Params:         0       0       0       0       0
  9794 ;;      Locals:         0       0       0       0       0
  9795 ;;      Temps:          3       0       0       0       0
  9796 ;;      Totals:         3       0       0       0       0
  9797 ;;Total ram usage:        3 bytes
  9798 ;; Hardware stack levels used: 1
  9799 ;; Hardware stack levels required when called: 1
  9800 ;; This function calls:
  9801 ;;		_clcd_print
  9802 ;;		_clcd_write
  9803 ;; This function is called by:
  9804 ;;		_main
  9805 ;; This function uses a non-reentrant model
  9806 ;;
  9807                           
  9808     11BD                     _clear_log:	
  9809                           ;psect for function _clear_log
  9810                           
  9811     11BD                     l3509:	
  9812                           ;incstack = 0
  9813                           ; Regs used in _clear_log: [wreg-fsr0h+status,2+status,0+pclath+btemp1+cstack]
  9814                           
  9815                           
  9816                           ;view_log.c: 111:     address=0;
  9817     11BD  1283               	bcf	3,5	;RP0=0, select bank0
  9818     11BE  1303               	bcf	3,6	;RP1=0, select bank0
  9819     11BF  01D1               	clrf	_address
  9820     11C0  01D2               	clrf	_address+1
  9821     11C1                     l3511:
  9822                           
  9823                           ;view_log.c: 114:     clcd_write(0x01, 0);
  9824     11C1  01F0               	clrf	clcd_write@mode
  9825     11C2  3001               	movlw	1
  9826     11C3  160A  118A  236D  160A  118A  	fcall	_clcd_write
  9827     11C8                     l3513:
  9828                           
  9829                           ;view_log.c: 115:     clcd_print("Logs Cleared", (0x80 + 0));
  9830     11C8  3041               	movlw	low (STR_31| (0+32768))
  9831     11C9  00F4               	movwf	clcd_print@str
  9832     11CA  3089               	movlw	high (STR_31| (0+32768))
  9833     11CB  00F5               	movwf	clcd_print@str+1
  9834     11CC  3080               	movlw	128
  9835     11CD  00F6               	movwf	clcd_print@addr
  9836     11CE  160A  118A  22AB  160A  118A  	fcall	_clcd_print
  9837     11D3                     l3515:
  9838                           
  9839                           ;view_log.c: 116:     _delay((unsigned long)((3000)*(20000000/4000.0)));
  9840     11D3  304D               	movlw	77
  9841     11D4  00F9               	movwf	??_clear_log+2
  9842     11D5  3019               	movlw	25
  9843     11D6  00F8               	movwf	??_clear_log+1
  9844     11D7  304F               	movlw	79
  9845     11D8  00F7               	movwf	??_clear_log
  9846     11D9                     u4237:
  9847     11D9  0BF7               	decfsz	??_clear_log,f
  9848     11DA  29D9               	goto	u4237
  9849     11DB  0BF8               	decfsz	??_clear_log+1,f
  9850     11DC  29D9               	goto	u4237
  9851     11DD  0BF9               	decfsz	??_clear_log+2,f
  9852     11DE  29D9               	goto	u4237
  9853     11DF  29E0               	nop2
  9854     11E0                     l417:
  9855     11E0  0008               	return
  9856     11E1                     __end_of_clear_log:
  9857                           
  9858                           	psect	text42
  9859     0E4A                     __ptext42:	
  9860 ;; *************** function _change_password *****************
  9861 ;; Defined at:
  9862 ;;		line 7 in file "password.c"
  9863 ;; Parameters:    Size  Location     Type
  9864 ;;  main_pwd        1   10[COMMON] PTR unsigned char 
  9865 ;;		 -> pass(5), 
  9866 ;; Auto vars:     Size  Location     Type
  9867 ;;  ch              1   13[BANK0 ] unsigned char 
  9868 ;;  cursor          1    7[BANK0 ] unsigned char 
  9869 ;;  new_pwd         5    8[BANK0 ] unsigned char [5]
  9870 ;;  confirm_pwd     5    0[BANK0 ] unsigned char [5]
  9871 ;;  blink           2   14[BANK0 ] unsigned short 
  9872 ;;  i               1   20[BANK0 ] unsigned char 
  9873 ;;  field           1   19[BANK0 ] unsigned char 
  9874 ;;  key             1   18[BANK0 ] unsigned char 
  9875 ;;  stage           1   17[BANK0 ] unsigned char 
  9876 ;;  bit             1   16[BANK0 ] unsigned char 
  9877 ;; Return value:  Size  Location     Type
  9878 ;;                  1    wreg      void 
  9879 ;; Registers used:
  9880 ;;		wreg, fsr0l, fsr0h, status,2, status,0, pclath, btemp1, cstack
  9881 ;; Tracked objects:
  9882 ;;		On entry : 0/0
  9883 ;;		On exit  : 0/0
  9884 ;;		Unchanged: 0/0
  9885 ;; Data sizes:     COMMON   BANK0   BANK1   BANK3   BANK2
  9886 ;;      Params:         1       0       0       0       0
  9887 ;;      Locals:         0      21       0       0       0
  9888 ;;      Temps:          3       0       0       0       0
  9889 ;;      Totals:         4      21       0       0       0
  9890 ;;Total ram usage:       25 bytes
  9891 ;; Hardware stack levels used: 1
  9892 ;; Hardware stack levels required when called: 2
  9893 ;; This function calls:
  9894 ;;		_clcd_print
  9895 ;;		_clcd_putch
  9896 ;;		_clcd_write
  9897 ;;		_my_strcmp
  9898 ;;		_read_digital_keypad
  9899 ;; This function is called by:
  9900 ;;		_main
  9901 ;; This function uses a non-reentrant model
  9902 ;;
  9903                           
  9904     0E4A                     _change_password:	
  9905                           ;psect for function _change_password
  9906                           
  9907     0E4A                     l3673:	
  9908                           ;incstack = 0
  9909                           ; Regs used in _change_password: [wreg-fsr0h+status,2+status,0+pclath+btemp1+cstack]
  9910                           
  9911                           
  9912                           ;password.c: 7: void change_password(char *main_pwd);password.c: 8: {;password.c: 9:    
      +                           unsigned char new_pwd[5] = "____";
  9913     0E4A  3028               	movlw	change_password@new_pwd& (0+255)
  9914     0E4B  0084               	movwf	4
  9915     0E4C  1683               	bsf	3,5	;RP0=1, select bank1
  9916     0E4D  1303               	bcf	3,6	;RP1=0, select bank1
  9917     0E4E  084D               	movf	change_password@F1068^(0+128),w
  9918     0E4F  1383               	bcf	3,7	;select IRP bank0
  9919     0E50  0080               	movwf	0
  9920     0E51  0A84               	incf	4,f
  9921     0E52  084E               	movf	(change_password@F1068^(0+128)+1),w
  9922     0E53  0080               	movwf	0
  9923     0E54  0A84               	incf	4,f
  9924     0E55  084F               	movf	(change_password@F1068^(0+128)+2),w
  9925     0E56  0080               	movwf	0
  9926     0E57  0A84               	incf	4,f
  9927     0E58  0850               	movf	(change_password@F1068^(0+128)+3),w
  9928     0E59  0080               	movwf	0
  9929     0E5A  0A84               	incf	4,f
  9930     0E5B  0851               	movf	(change_password@F1068^(0+128)+4),w
  9931     0E5C  0080               	movwf	0
  9932                           
  9933                           ;password.c: 10:     unsigned char confirm_pwd[5] = "____";
  9934     0E5D  3020               	movlw	change_password@confirm_pwd& (0+255)
  9935     0E5E  0084               	movwf	4
  9936     0E5F  0848               	movf	change_password@F1070^(0+128),w
  9937     0E60  0080               	movwf	0
  9938     0E61  0A84               	incf	4,f
  9939     0E62  0849               	movf	(change_password@F1070^(0+128)+1),w
  9940     0E63  0080               	movwf	0
  9941     0E64  0A84               	incf	4,f
  9942     0E65  084A               	movf	(change_password@F1070^(0+128)+2),w
  9943     0E66  0080               	movwf	0
  9944     0E67  0A84               	incf	4,f
  9945     0E68  084B               	movf	(change_password@F1070^(0+128)+3),w
  9946     0E69  0080               	movwf	0
  9947     0E6A  0A84               	incf	4,f
  9948     0E6B  084C               	movf	(change_password@F1070^(0+128)+4),w
  9949     0E6C  0080               	movwf	0
  9950     0E6D                     l3675:
  9951                           
  9952                           ;password.c: 11:     unsigned char field = 0;
  9953     0E6D  1283               	bcf	3,5	;RP0=0, select bank0
  9954     0E6E  1303               	bcf	3,6	;RP1=0, select bank0
  9955     0E6F  01B3               	clrf	change_password@field
  9956     0E70                     l3677:
  9957                           
  9958                           ;password.c: 12:     unsigned char stage = 0;
  9959     0E70  01B1               	clrf	change_password@stage
  9960     0E71                     l3679:
  9961                           
  9962                           ;password.c: 13:     unsigned char key;;password.c: 14:     unsigned short blink = 0;
  9963     0E71  01AE               	clrf	change_password@blink
  9964     0E72  01AF               	clrf	change_password@blink+1
  9965     0E73                     l3681:
  9966                           
  9967                           ;password.c: 15:     unsigned char i;;password.c: 16:     unsigned char bit;;password.c:
      +                           18:     clcd_write(0x01, 0);
  9968     0E73  01F0               	clrf	clcd_write@mode
  9969     0E74  3001               	movlw	1
  9970     0E75  160A  118A  236D  120A  158A  	fcall	_clcd_write
  9971     0E7A                     l3683:
  9972                           
  9973                           ;password.c: 19:     clcd_print("NEW PASSWORD", (0x80 + 2));
  9974     0E7A  3027               	movlw	low (STR_35| (0+32768))
  9975     0E7B  00F4               	movwf	clcd_print@str
  9976     0E7C  3089               	movlw	high (STR_35| (0+32768))
  9977     0E7D  00F5               	movwf	clcd_print@str+1
  9978     0E7E  3082               	movlw	130
  9979     0E7F  00F6               	movwf	clcd_print@addr
  9980     0E80  160A  118A  22AB  120A  158A  	fcall	_clcd_print
  9981     0E85                     l3685:
  9982                           
  9983                           ;password.c: 22:     {;password.c: 23:         key = read_digital_keypad(1);
  9984     0E85  3001               	movlw	1
  9985     0E86  120A  158A  21D2  120A  158A  	fcall	_read_digital_keypad
  9986     0E8B  1283               	bcf	3,5	;RP0=0, select bank0
  9987     0E8C  1303               	bcf	3,6	;RP1=0, select bank0
  9988     0E8D  00B2               	movwf	change_password@key
  9989     0E8E                     l3687:
  9990                           
  9991                           ;password.c: 26:         if (key == 0x37)
  9992     0E8E  3037               	movlw	55
  9993     0E8F  0632               	xorwf	change_password@key,w
  9994     0E90  1D03               	btfss	3,2
  9995     0E91  2E93               	goto	u3871
  9996     0E92  2E94               	goto	u3870
  9997     0E93                     u3871:
  9998     0E93  2E95               	goto	l3691
  9999     0E94                     u3870:
 10000     0E94  2FFF               	goto	l477
 10001     0E95                     l3691:
 10002                           
 10003                           ;password.c: 30:         blink++;
 10004     0E95  3001               	movlw	1
 10005     0E96  07AE               	addwf	change_password@blink,f
 10006     0E97  1803               	skipnc
 10007     0E98  0AAF               	incf	change_password@blink+1,f
 10008     0E99  3000               	movlw	0
 10009     0E9A  07AF               	addwf	change_password@blink+1,f
 10010                           
 10011                           ;password.c: 31:         if (blink >= 10)
 10012     0E9B  3000               	movlw	0
 10013     0E9C  022F               	subwf	change_password@blink+1,w
 10014     0E9D  300A               	movlw	10
 10015     0E9E  1903               	skipnz
 10016     0E9F  022E               	subwf	change_password@blink,w
 10017     0EA0  1C03               	skipc
 10018     0EA1  2EA3               	goto	u3881
 10019     0EA2  2EA4               	goto	u3880
 10020     0EA3                     u3881:
 10021     0EA3  2EA6               	goto	l3695
 10022     0EA4                     u3880:
 10023     0EA4                     l3693:
 10024                           
 10025                           ;password.c: 32:             blink = 0;
 10026     0EA4  01AE               	clrf	change_password@blink
 10027     0EA5  01AF               	clrf	change_password@blink+1
 10028     0EA6                     l3695:
 10029                           
 10030                           ;password.c: 35:         if (key == 0x3E || key == 0x3D)
 10031     0EA6  303E               	movlw	62
 10032     0EA7  0632               	xorwf	change_password@key,w
 10033     0EA8  1903               	btfsc	3,2
 10034     0EA9  2EAB               	goto	u3891
 10035     0EAA  2EAC               	goto	u3890
 10036     0EAB                     u3891:
 10037     0EAB  2EB2               	goto	l3699
 10038     0EAC                     u3890:
 10039     0EAC                     l3697:
 10040     0EAC  303D               	movlw	61
 10041     0EAD  0632               	xorwf	change_password@key,w
 10042     0EAE  1D03               	btfss	3,2
 10043     0EAF  2EB1               	goto	u3901
 10044     0EB0  2EB2               	goto	u3900
 10045     0EB1                     u3901:
 10046     0EB1  2F99               	goto	l3779
 10047     0EB2                     u3900:
 10048     0EB2                     l3699:
 10049                           
 10050                           ;password.c: 36:         {;password.c: 37:             if(key==0x3E)
 10051     0EB2  303E               	movlw	62
 10052     0EB3  0632               	xorwf	change_password@key,w
 10053     0EB4  1D03               	btfss	3,2
 10054     0EB5  2EB7               	goto	u3911
 10055     0EB6  2EB8               	goto	u3910
 10056     0EB7                     u3911:
 10057     0EB7  2EBB               	goto	l3703
 10058     0EB8                     u3910:
 10059     0EB8                     l3701:
 10060                           
 10061                           ;password.c: 38:             {;password.c: 39:                 bit='0';
 10062     0EB8  3030               	movlw	48
 10063     0EB9  00B0               	movwf	change_password@bit
 10064                           
 10065                           ;password.c: 40:             }
 10066     0EBA  2EC3               	goto	l3707
 10067     0EBB                     l3703:
 10068     0EBB  303D               	movlw	61
 10069     0EBC  0632               	xorwf	change_password@key,w
 10070     0EBD  1D03               	btfss	3,2
 10071     0EBE  2EC0               	goto	u3921
 10072     0EBF  2EC1               	goto	u3920
 10073     0EC0                     u3921:
 10074     0EC0  2EC3               	goto	l3707
 10075     0EC1                     u3920:
 10076     0EC1                     l3705:
 10077                           
 10078                           ;password.c: 42:             {;password.c: 43:                 bit='1';
 10079     0EC1  3031               	movlw	49
 10080     0EC2  00B0               	movwf	change_password@bit
 10081     0EC3                     l3707:
 10082                           
 10083                           ;password.c: 46:             if (stage == 0)
 10084     0EC3  0831               	movf	change_password@stage,w
 10085     0EC4  1D03               	btfss	3,2
 10086     0EC5  2EC7               	goto	u3931
 10087     0EC6  2EC8               	goto	u3930
 10088     0EC7                     u3931:
 10089     0EC7  2ECF               	goto	l3711
 10090     0EC8                     u3930:
 10091     0EC8                     l3709:
 10092                           
 10093                           ;password.c: 47:                 new_pwd[field] = bit;
 10094     0EC8  0833               	movf	change_password@field,w
 10095     0EC9  3E28               	addlw	(low (change_password@new_pwd| 0))& (0+255)
 10096     0ECA  0084               	movwf	4
 10097     0ECB  0830               	movf	change_password@bit,w
 10098     0ECC  1383               	bcf	3,7	;select IRP bank0
 10099     0ECD  0080               	movwf	0
 10100     0ECE  2ED5               	goto	l3713
 10101     0ECF                     l3711:
 10102                           
 10103                           ;password.c: 49:                 confirm_pwd[field] = bit;
 10104     0ECF  0833               	movf	change_password@field,w
 10105     0ED0  3E20               	addlw	(low (change_password@confirm_pwd| 0))& (0+255)
 10106     0ED1  0084               	movwf	4
 10107     0ED2  0830               	movf	change_password@bit,w
 10108     0ED3  1383               	bcf	3,7	;select IRP bank0
 10109     0ED4  0080               	movwf	0
 10110     0ED5                     l3713:
 10111                           
 10112                           ;password.c: 51:             field++;
 10113     0ED5  3001               	movlw	1
 10114     0ED6  07B3               	addwf	change_password@field,f
 10115     0ED7                     l3715:
 10116                           
 10117                           ;password.c: 53:             if (field >= 4)
 10118     0ED7  3004               	movlw	4
 10119     0ED8  0233               	subwf	change_password@field,w
 10120     0ED9  1C03               	skipc
 10121     0EDA  2EDC               	goto	u3941
 10122     0EDB  2EDD               	goto	u3940
 10123     0EDC                     u3941:
 10124     0EDC  2F99               	goto	l3779
 10125     0EDD                     u3940:
 10126     0EDD                     l3717:
 10127                           
 10128                           ;password.c: 54:             {;password.c: 55:                 if (stage == 0)
 10129     0EDD  0831               	movf	change_password@stage,w
 10130     0EDE  1D03               	btfss	3,2
 10131     0EDF  2EE1               	goto	u3951
 10132     0EE0  2EE2               	goto	u3950
 10133     0EE1                     u3951:
 10134     0EE1  2EF8               	goto	l3727
 10135     0EE2                     u3950:
 10136     0EE2                     l3719:
 10137                           
 10138                           ;password.c: 56:                 {;password.c: 57:                     stage = 1;
 10139     0EE2  3001               	movlw	1
 10140     0EE3  00B1               	movwf	change_password@stage
 10141     0EE4                     l3721:
 10142                           
 10143                           ;password.c: 58:                     field = 0;
 10144     0EE4  01B3               	clrf	change_password@field
 10145     0EE5                     l3723:
 10146                           
 10147                           ;password.c: 59:                     clcd_write(0x01, 0);
 10148     0EE5  01F0               	clrf	clcd_write@mode
 10149     0EE6  3001               	movlw	1
 10150     0EE7  160A  118A  236D  120A  158A  	fcall	_clcd_write
 10151     0EEC                     l3725:
 10152                           
 10153                           ;password.c: 60:                     clcd_print("RE-ENTER PWD", (0x80 + 2));
 10154     0EEC  3034               	movlw	low (STR_36| (0+32768))
 10155     0EED  00F4               	movwf	clcd_print@str
 10156     0EEE  3089               	movlw	high (STR_36| (0+32768))
 10157     0EEF  00F5               	movwf	clcd_print@str+1
 10158     0EF0  3082               	movlw	130
 10159     0EF1  00F6               	movwf	clcd_print@addr
 10160     0EF2  160A  118A  22AB  120A  158A  	fcall	_clcd_print
 10161                           
 10162                           ;password.c: 61:                 }
 10163     0EF7  2F99               	goto	l3779
 10164     0EF8                     l3727:
 10165                           
 10166                           ;password.c: 63:                 {;password.c: 65:                     if (my_strcmp(new
      +                          _pwd, confirm_pwd) == 0)
 10167     0EF8  3028               	movlw	(low (change_password@new_pwd| 0))& (0+255)
 10168     0EF9  00F0               	movwf	my_strcmp@str1
 10169     0EFA  3020               	movlw	(low (change_password@confirm_pwd| 0))& (0+255)
 10170     0EFB  00F1               	movwf	my_strcmp@str2
 10171     0EFC  160A  118A  230A  120A  158A  	fcall	_my_strcmp
 10172     0F01  0870               	movf	?_my_strcmp,w
 10173     0F02  0471               	iorwf	?_my_strcmp+1,w
 10174     0F03  1D03               	btfss	3,2
 10175     0F04  2F06               	goto	u3961
 10176     0F05  2F07               	goto	u3960
 10177     0F06                     u3961:
 10178     0F06  2F4E               	goto	l3755
 10179     0F07                     u3960:
 10180     0F07                     l3729:
 10181                           
 10182                           ;password.c: 66:                     {;password.c: 67:                         for( i=0;
      +                          i<4;i++)
 10183     0F07  1283               	bcf	3,5	;RP0=0, select bank0
 10184     0F08  1303               	bcf	3,6	;RP1=0, select bank0
 10185     0F09  01B4               	clrf	change_password@i
 10186     0F0A                     l3735:
 10187                           
 10188                           ;password.c: 68:                         {;password.c: 69:                             m
      +                          ain_pwd[i]=new_pwd[i];
 10189     0F0A  0834               	movf	change_password@i,w
 10190     0F0B  3E28               	addlw	(low (change_password@new_pwd| 0))& (0+255)
 10191     0F0C  0084               	movwf	4
 10192     0F0D  1383               	bcf	3,7	;select IRP bank0
 10193     0F0E  0800               	movf	0,w
 10194     0F0F  00FB               	movwf	??_change_password
 10195     0F10  0834               	movf	change_password@i,w
 10196     0F11  077A               	addwf	change_password@main_pwd,w
 10197     0F12  00FC               	movwf	??_change_password+1
 10198     0F13  087C               	movf	??_change_password+1,w
 10199     0F14  0084               	movwf	4
 10200     0F15  087B               	movf	??_change_password,w
 10201     0F16  0080               	movwf	0
 10202     0F17                     l3737:
 10203                           
 10204                           ;password.c: 70:                         }
 10205     0F17  3001               	movlw	1
 10206     0F18  07B4               	addwf	change_password@i,f
 10207     0F19                     l3739:
 10208     0F19  3004               	movlw	4
 10209     0F1A  0234               	subwf	change_password@i,w
 10210     0F1B  1C03               	skipc
 10211     0F1C  2F1E               	goto	u3971
 10212     0F1D  2F1F               	goto	u3970
 10213     0F1E                     u3971:
 10214     0F1E  2F0A               	goto	l3735
 10215     0F1F                     u3970:
 10216     0F1F                     l3741:
 10217                           
 10218                           ;password.c: 71:                         main_pwd[4]='\0';
 10219     0F1F  087A               	movf	change_password@main_pwd,w
 10220     0F20  3E04               	addlw	4
 10221     0F21  0084               	movwf	4
 10222     0F22  0180               	clrf	0
 10223     0F23                     l3743:
 10224                           
 10225                           ;password.c: 73:                         clcd_write(0x01, 0);
 10226     0F23  01F0               	clrf	clcd_write@mode
 10227     0F24  3001               	movlw	1
 10228     0F25  160A  118A  236D  120A  158A  	fcall	_clcd_write
 10229     0F2A                     l3745:
 10230                           
 10231                           ;password.c: 74:                         clcd_print("NEW PASSWORD ", (0x80 + 2));
 10232     0F2A  30FD               	movlw	low (STR_37| (0+32768))
 10233     0F2B  00F4               	movwf	clcd_print@str
 10234     0F2C  3088               	movlw	high (STR_37| (0+32768))
 10235     0F2D  00F5               	movwf	clcd_print@str+1
 10236     0F2E  3082               	movlw	130
 10237     0F2F  00F6               	movwf	clcd_print@addr
 10238     0F30  160A  118A  22AB  120A  158A  	fcall	_clcd_print
 10239     0F35                     l3747:
 10240                           
 10241                           ;password.c: 75:                         clcd_print("    SET", (0xC0 + 2));
 10242     0F35  30A2               	movlw	low (STR_38| (0+32768))
 10243     0F36  00F4               	movwf	clcd_print@str
 10244     0F37  3089               	movlw	high (STR_38| (0+32768))
 10245     0F38  00F5               	movwf	clcd_print@str+1
 10246     0F39  30C2               	movlw	194
 10247     0F3A  00F6               	movwf	clcd_print@addr
 10248     0F3B  160A  118A  22AB  120A  158A  	fcall	_clcd_print
 10249     0F40                     l3749:
 10250                           
 10251                           ;password.c: 76:                         _delay((unsigned long)((3000)*(20000000/4000.0)
      +                          ));
 10252     0F40  304D               	movlw	77
 10253     0F41  00FD               	movwf	??_change_password+2
 10254     0F42  3019               	movlw	25
 10255     0F43  00FC               	movwf	??_change_password+1
 10256     0F44  304F               	movlw	79
 10257     0F45  00FB               	movwf	??_change_password
 10258     0F46                     u4247:
 10259     0F46  0BFB               	decfsz	??_change_password,f
 10260     0F47  2F46               	goto	u4247
 10261     0F48  0BFC               	decfsz	??_change_password+1,f
 10262     0F49  2F46               	goto	u4247
 10263     0F4A  0BFD               	decfsz	??_change_password+2,f
 10264     0F4B  2F46               	goto	u4247
 10265     0F4C  2F4D               	nop2
 10266     0F4D  2FFF               	goto	l477
 10267     0F4E                     l3755:
 10268                           
 10269                           ;password.c: 80:                     {;password.c: 81:                         clcd_writ
      +                          e(0x01, 0);
 10270     0F4E  01F0               	clrf	clcd_write@mode
 10271     0F4F  3001               	movlw	1
 10272     0F50  160A  118A  236D  120A  158A  	fcall	_clcd_write
 10273     0F55                     l3757:
 10274                           
 10275                           ;password.c: 82:                         clcd_print("MISMATCH", (0x80 + 4));
 10276     0F55  3087               	movlw	low (STR_39| (0+32768))
 10277     0F56  00F4               	movwf	clcd_print@str
 10278     0F57  3089               	movlw	high (STR_39| (0+32768))
 10279     0F58  00F5               	movwf	clcd_print@str+1
 10280     0F59  3084               	movlw	132
 10281     0F5A  00F6               	movwf	clcd_print@addr
 10282     0F5B  160A  118A  22AB  120A  158A  	fcall	_clcd_print
 10283     0F60                     l3759:
 10284                           
 10285                           ;password.c: 83:                         _delay((unsigned long)((3000)*(20000000/4000.0)
      +                          ));
 10286     0F60  304D               	movlw	77
 10287     0F61  00FD               	movwf	??_change_password+2
 10288     0F62  3019               	movlw	25
 10289     0F63  00FC               	movwf	??_change_password+1
 10290     0F64  304F               	movlw	79
 10291     0F65  00FB               	movwf	??_change_password
 10292     0F66                     u4257:
 10293     0F66  0BFB               	decfsz	??_change_password,f
 10294     0F67  2F66               	goto	u4257
 10295     0F68  0BFC               	decfsz	??_change_password+1,f
 10296     0F69  2F66               	goto	u4257
 10297     0F6A  0BFD               	decfsz	??_change_password+2,f
 10298     0F6B  2F66               	goto	u4257
 10299     0F6C  2F6D               	nop2
 10300     0F6D                     l3761:
 10301                           
 10302                           ;password.c: 85:                         for (i = 0; i < 4; i++)
 10303     0F6D  1283               	bcf	3,5	;RP0=0, select bank0
 10304     0F6E  1303               	bcf	3,6	;RP1=0, select bank0
 10305     0F6F  01B4               	clrf	change_password@i
 10306     0F70                     l3767:
 10307                           
 10308                           ;password.c: 86:                         {;password.c: 87:                             n
      +                          ew_pwd[i] = '_';
 10309     0F70  0834               	movf	change_password@i,w
 10310     0F71  3E28               	addlw	(low (change_password@new_pwd| 0))& (0+255)
 10311     0F72  0084               	movwf	4
 10312     0F73  305F               	movlw	95
 10313     0F74  1383               	bcf	3,7	;select IRP bank0
 10314     0F75  0080               	movwf	0
 10315                           
 10316                           ;password.c: 88:                             confirm_pwd[i] = '_';
 10317     0F76  0834               	movf	change_password@i,w
 10318     0F77  3E20               	addlw	(low (change_password@confirm_pwd| 0))& (0+255)
 10319     0F78  0084               	movwf	4
 10320     0F79  305F               	movlw	95
 10321     0F7A  0080               	movwf	0
 10322     0F7B                     l3769:
 10323                           
 10324                           ;password.c: 89:                         }
 10325     0F7B  3001               	movlw	1
 10326     0F7C  07B4               	addwf	change_password@i,f
 10327     0F7D                     l3771:
 10328     0F7D  3004               	movlw	4
 10329     0F7E  0234               	subwf	change_password@i,w
 10330     0F7F  1C03               	skipc
 10331     0F80  2F82               	goto	u3981
 10332     0F81  2F83               	goto	u3980
 10333     0F82                     u3981:
 10334     0F82  2F70               	goto	l3767
 10335     0F83                     u3980:
 10336     0F83                     l3773:
 10337                           
 10338                           ;password.c: 90:                         new_pwd[4]='\0';
 10339     0F83  01AC               	clrf	change_password@new_pwd+4
 10340                           
 10341                           ;password.c: 91:                         confirm_pwd[4]='\0';
 10342     0F84  01A4               	clrf	change_password@confirm_pwd+4
 10343                           
 10344                           ;password.c: 93:                         field = 0;
 10345     0F85  01B3               	clrf	change_password@field
 10346                           
 10347                           ;password.c: 94:                         stage = 0;
 10348     0F86  01B1               	clrf	change_password@stage
 10349     0F87                     l3775:
 10350                           
 10351                           ;password.c: 96:                         clcd_write(0x01, 0);
 10352     0F87  01F0               	clrf	clcd_write@mode
 10353     0F88  3001               	movlw	1
 10354     0F89  160A  118A  236D  120A  158A  	fcall	_clcd_write
 10355     0F8E                     l3777:
 10356                           
 10357                           ;password.c: 97:                         clcd_print("NEW PASSWORD", (0x80 + 2));
 10358     0F8E  3027               	movlw	low (STR_35| (0+32768))
 10359     0F8F  00F4               	movwf	clcd_print@str
 10360     0F90  3089               	movlw	high (STR_35| (0+32768))
 10361     0F91  00F5               	movwf	clcd_print@str+1
 10362     0F92  3082               	movlw	130
 10363     0F93  00F6               	movwf	clcd_print@addr
 10364     0F94  160A  118A  22AB  120A  158A  	fcall	_clcd_print
 10365     0F99                     l3779:
 10366                           
 10367                           ;password.c: 104:         unsigned char cursor = (field < 4) ? field : 3;
 10368     0F99  3004               	movlw	4
 10369     0F9A  1283               	bcf	3,5	;RP0=0, select bank0
 10370     0F9B  1303               	bcf	3,6	;RP1=0, select bank0
 10371     0F9C  0233               	subwf	change_password@field,w
 10372     0F9D  1C03               	skipc
 10373     0F9E  2FA0               	goto	u3991
 10374     0F9F  2FA1               	goto	u3990
 10375     0FA0                     u3991:
 10376     0FA0  2FA6               	goto	l3783
 10377     0FA1                     u3990:
 10378     0FA1                     l3781:
 10379     0FA1  3003               	movlw	3
 10380     0FA2  00A5               	movwf	_change_password$376
 10381     0FA3  3000               	movlw	0
 10382     0FA4  00A6               	movwf	_change_password$376+1
 10383     0FA5  2FAD               	goto	l499
 10384     0FA6                     l3783:
 10385     0FA6  0833               	movf	change_password@field,w
 10386     0FA7  00FB               	movwf	??_change_password
 10387     0FA8  01FC               	clrf	??_change_password+1
 10388     0FA9  087B               	movf	??_change_password,w
 10389     0FAA  00A5               	movwf	_change_password$376
 10390     0FAB  087C               	movf	??_change_password+1,w
 10391     0FAC  00A6               	movwf	_change_password$376+1
 10392     0FAD                     l499:
 10393     0FAD  0825               	movf	_change_password$376,w
 10394     0FAE  00A7               	movwf	change_password@cursor
 10395     0FAF                     l3785:
 10396                           
 10397                           ;password.c: 105:         for (i = 0; i < 4; i++)
 10398     0FAF  01B4               	clrf	change_password@i
 10399     0FB0                     l3791:
 10400                           
 10401                           ;password.c: 106:         {;password.c: 107:             char ch;;password.c: 109:      
      +                                 if (stage == 0)
 10402     0FB0  0831               	movf	change_password@stage,w
 10403     0FB1  1D03               	btfss	3,2
 10404     0FB2  2FB4               	goto	u4001
 10405     0FB3  2FB5               	goto	u4000
 10406     0FB4                     u4001:
 10407     0FB4  2FBC               	goto	l3795
 10408     0FB5                     u4000:
 10409     0FB5                     l3793:
 10410                           
 10411                           ;password.c: 110:                 ch = new_pwd[i];
 10412     0FB5  0834               	movf	change_password@i,w
 10413     0FB6  3E28               	addlw	(low (change_password@new_pwd| 0))& (0+255)
 10414     0FB7  0084               	movwf	4
 10415     0FB8  1383               	bcf	3,7	;select IRP bank0
 10416     0FB9  0800               	movf	0,w
 10417     0FBA  00AD               	movwf	change_password@ch
 10418     0FBB  2FC2               	goto	l3797
 10419     0FBC                     l3795:
 10420                           
 10421                           ;password.c: 112:                 ch = confirm_pwd[i];
 10422     0FBC  0834               	movf	change_password@i,w
 10423     0FBD  3E20               	addlw	(low (change_password@confirm_pwd| 0))& (0+255)
 10424     0FBE  0084               	movwf	4
 10425     0FBF  1383               	bcf	3,7	;select IRP bank0
 10426     0FC0  0800               	movf	0,w
 10427     0FC1  00AD               	movwf	change_password@ch
 10428     0FC2                     l3797:
 10429                           
 10430                           ;password.c: 114:             if (i == cursor && blink < 5)
 10431     0FC2  0834               	movf	change_password@i,w
 10432     0FC3  0627               	xorwf	change_password@cursor,w
 10433     0FC4  1D03               	skipz
 10434     0FC5  2FC7               	goto	u4011
 10435     0FC6  2FC8               	goto	u4010
 10436     0FC7                     u4011:
 10437     0FC7  2FDB               	goto	l3803
 10438     0FC8                     u4010:
 10439     0FC8                     l3799:
 10440     0FC8  3000               	movlw	0
 10441     0FC9  022F               	subwf	change_password@blink+1,w
 10442     0FCA  3005               	movlw	5
 10443     0FCB  1903               	skipnz
 10444     0FCC  022E               	subwf	change_password@blink,w
 10445     0FCD  1803               	skipnc
 10446     0FCE  2FD0               	goto	u4021
 10447     0FCF  2FD1               	goto	u4020
 10448     0FD0                     u4021:
 10449     0FD0  2FDB               	goto	l3803
 10450     0FD1                     u4020:
 10451     0FD1                     l3801:
 10452                           
 10453                           ;password.c: 115:                 clcd_putch(' ', (0xC0 + 6 + i));
 10454     0FD1  0834               	movf	change_password@i,w
 10455     0FD2  3EC6               	addlw	198
 10456     0FD3  00F8               	movwf	clcd_putch@addr
 10457     0FD4  3020               	movlw	32
 10458     0FD5  160A  118A  20F6  120A  158A  	fcall	_clcd_putch
 10459     0FDA  2FF4               	goto	l3809
 10460     0FDB                     l3803:
 10461                           
 10462                           ;password.c: 117:             {;password.c: 118:                 if (ch == '_')
 10463     0FDB  305F               	movlw	95
 10464     0FDC  062D               	xorwf	change_password@ch,w
 10465     0FDD  1D03               	btfss	3,2
 10466     0FDE  2FE0               	goto	u4031
 10467     0FDF  2FE1               	goto	u4030
 10468     0FE0                     u4031:
 10469     0FE0  2FEB               	goto	l3807
 10470     0FE1                     u4030:
 10471     0FE1                     l3805:
 10472                           
 10473                           ;password.c: 119:                     clcd_putch('_', (0xC0 + 6 + i));
 10474     0FE1  0834               	movf	change_password@i,w
 10475     0FE2  3EC6               	addlw	198
 10476     0FE3  00F8               	movwf	clcd_putch@addr
 10477     0FE4  305F               	movlw	95
 10478     0FE5  160A  118A  20F6  120A  158A  	fcall	_clcd_putch
 10479     0FEA  2FF4               	goto	l3809
 10480     0FEB                     l3807:
 10481                           
 10482                           ;password.c: 121:                     clcd_putch('*', (0xC0 + 6 + i));
 10483     0FEB  0834               	movf	change_password@i,w
 10484     0FEC  3EC6               	addlw	198
 10485     0FED  00F8               	movwf	clcd_putch@addr
 10486     0FEE  302A               	movlw	42
 10487     0FEF  160A  118A  20F6  120A  158A  	fcall	_clcd_putch
 10488     0FF4                     l3809:
 10489                           
 10490                           ;password.c: 125:         }
 10491     0FF4  3001               	movlw	1
 10492     0FF5  1283               	bcf	3,5	;RP0=0, select bank0
 10493     0FF6  1303               	bcf	3,6	;RP1=0, select bank0
 10494     0FF7  07B4               	addwf	change_password@i,f
 10495     0FF8                     l3811:
 10496     0FF8  3004               	movlw	4
 10497     0FF9  0234               	subwf	change_password@i,w
 10498     0FFA  1C03               	skipc
 10499     0FFB  2FFD               	goto	u4041
 10500     0FFC  2FFE               	goto	u4040
 10501     0FFD                     u4041:
 10502     0FFD  2FB0               	goto	l3791
 10503     0FFE                     u4040:
 10504     0FFE  2E85               	goto	l3685
 10505     0FFF                     l477:
 10506     0FFF  0008               	return
 10507     1000                     __end_of_change_password:
 10508                           
 10509                           	psect	text43
 10510     09D2                     __ptext43:	
 10511 ;; *************** function _read_digital_keypad *****************
 10512 ;; Defined at:
 10513 ;;		line 10 in file "digital_keypad.c"
 10514 ;; Parameters:    Size  Location     Type
 10515 ;;  mode            1    wreg     unsigned char 
 10516 ;; Auto vars:     Size  Location     Type
 10517 ;;  mode            1    1[COMMON] unsigned char 
 10518 ;; Return value:  Size  Location     Type
 10519 ;;                  1    wreg      unsigned char 
 10520 ;; Registers used:
 10521 ;;		wreg, status,2, status,0
 10522 ;; Tracked objects:
 10523 ;;		On entry : 0/0
 10524 ;;		On exit  : 0/0
 10525 ;;		Unchanged: 0/0
 10526 ;; Data sizes:     COMMON   BANK0   BANK1   BANK3   BANK2
 10527 ;;      Params:         0       0       0       0       0
 10528 ;;      Locals:         1       0       0       0       0
 10529 ;;      Temps:          1       0       0       0       0
 10530 ;;      Totals:         2       0       0       0       0
 10531 ;;Total ram usage:        2 bytes
 10532 ;; Hardware stack levels used: 1
 10533 ;; This function calls:
 10534 ;;		Nothing
 10535 ;; This function is called by:
 10536 ;;		_main
 10537 ;;		_login_screen
 10538 ;;		_menu_screen
 10539 ;;		_view_log
 10540 ;;		_set_time
 10541 ;;		_change_password
 10542 ;; This function uses a non-reentrant model
 10543 ;;
 10544                           
 10545     09D2                     _read_digital_keypad:	
 10546                           ;psect for function _read_digital_keypad
 10547                           
 10548                           
 10549                           ;incstack = 0
 10550                           ; Regs used in _read_digital_keypad: [wreg+status,2+status,0]
 10551                           ;read_digital_keypad@mode stored from wreg
 10552     09D2  00F1               	movwf	read_digital_keypad@mode
 10553     09D3                     l2649:
 10554                           
 10555                           ;digital_keypad.c: 10: unsigned char read_digital_keypad(unsigned char mode);digital_key
      +                          pad.c: 11: {;digital_keypad.c: 12:     static unsigned char once = 1;;digital_keypad.c: 
      +                          14:     if (mode == 0)
 10556     09D3  0871               	movf	read_digital_keypad@mode,w
 10557     09D4  1D03               	btfss	3,2
 10558     09D5  29D7               	goto	u2251
 10559     09D6  29D8               	goto	u2250
 10560     09D7                     u2251:
 10561     09D7  29DD               	goto	l2657
 10562     09D8                     u2250:
 10563     09D8                     l2651:
 10564                           
 10565                           ;digital_keypad.c: 15:     {;digital_keypad.c: 16:         return PORTB & 0x3F;
 10566     09D8  1283               	bcf	3,5	;RP0=0, select bank0
 10567     09D9  1303               	bcf	3,6	;RP1=0, select bank0
 10568     09DA  0806               	movf	6,w	;volatile
 10569     09DB  393F               	andlw	63
 10570     09DC  29FB               	goto	l249
 10571     09DD                     l2657:
 10572                           
 10573                           ;digital_keypad.c: 19:     {;digital_keypad.c: 20:         if (((PORTB & 0x3F) != 0x3F) 
      +                          && once)
 10574     09DD  303F               	movlw	63
 10575     09DE  1283               	bcf	3,5	;RP0=0, select bank0
 10576     09DF  1303               	bcf	3,6	;RP1=0, select bank0
 10577     09E0  0506               	andwf	6,w	;volatile
 10578     09E1  00F0               	movwf	??_read_digital_keypad
 10579     09E2  303F               	movlw	63
 10580     09E3  0670               	xorwf	??_read_digital_keypad,w
 10581     09E4  1903               	btfsc	3,2
 10582     09E5  29E7               	goto	u2261
 10583     09E6  29E8               	goto	u2260
 10584     09E7                     u2261:
 10585     09E7  29EF               	goto	l2669
 10586     09E8                     u2260:
 10587     09E8                     l2659:
 10588     09E8  086B               	movf	read_digital_keypad@once,w
 10589     09E9  1903               	btfsc	3,2
 10590     09EA  29EC               	goto	u2271
 10591     09EB  29ED               	goto	u2270
 10592     09EC                     u2271:
 10593     09EC  29EF               	goto	l2669
 10594     09ED                     u2270:
 10595     09ED                     l2661:
 10596                           
 10597                           ;digital_keypad.c: 21:         {;digital_keypad.c: 22:             once = 0;
 10598     09ED  01EB               	clrf	read_digital_keypad@once
 10599     09EE  29D8               	goto	l2651
 10600     09EF                     l2669:
 10601     09EF  303F               	movlw	63
 10602     09F0  0506               	andwf	6,w	;volatile
 10603     09F1  00F0               	movwf	??_read_digital_keypad
 10604     09F2  303F               	movlw	63
 10605     09F3  0670               	xorwf	??_read_digital_keypad,w
 10606     09F4  1D03               	btfss	3,2
 10607     09F5  29F7               	goto	u2281
 10608     09F6  29F8               	goto	u2280
 10609     09F7                     u2281:
 10610     09F7  29FA               	goto	l2673
 10611     09F8                     u2280:
 10612     09F8                     l2671:
 10613                           
 10614                           ;digital_keypad.c: 27:         {;digital_keypad.c: 28:             once = 1;
 10615     09F8  3001               	movlw	1
 10616     09F9  00EB               	movwf	read_digital_keypad@once
 10617     09FA                     l2673:
 10618                           
 10619                           ;digital_keypad.c: 32:     return 0x3F;
 10620     09FA  303F               	movlw	63
 10621     09FB                     l249:
 10622     09FB  0008               	return
 10623     09FC                     __end_of_read_digital_keypad:
 10624                           
 10625                           	psect	text44
 10626     130A                     __ptext44:	
 10627 ;; *************** function _my_strcmp *****************
 10628 ;; Defined at:
 10629 ;;		line 110 in file "dashboard.c"
 10630 ;; Parameters:    Size  Location     Type
 10631 ;;  str1            1    0[COMMON] PTR unsigned char 
 10632 ;;		 -> change_password@new_pwd(5), user_pass(5), 
 10633 ;;  str2            1    1[COMMON] PTR unsigned char 
 10634 ;;		 -> change_password@confirm_pwd(5), pass(5), 
 10635 ;; Auto vars:     Size  Location     Type
 10636 ;;		None
 10637 ;; Return value:  Size  Location     Type
 10638 ;;                  2    0[COMMON] int 
 10639 ;; Registers used:
 10640 ;;		wreg, fsr0l, fsr0h, status,2, status,0
 10641 ;; Tracked objects:
 10642 ;;		On entry : 0/0
 10643 ;;		On exit  : 0/0
 10644 ;;		Unchanged: 0/0
 10645 ;; Data sizes:     COMMON   BANK0   BANK1   BANK3   BANK2
 10646 ;;      Params:         2       0       0       0       0
 10647 ;;      Locals:         0       0       0       0       0
 10648 ;;      Temps:          2       0       0       0       0
 10649 ;;      Totals:         4       0       0       0       0
 10650 ;;Total ram usage:        4 bytes
 10651 ;; Hardware stack levels used: 1
 10652 ;; This function calls:
 10653 ;;		Nothing
 10654 ;; This function is called by:
 10655 ;;		_login_screen
 10656 ;;		_change_password
 10657 ;; This function uses a non-reentrant model
 10658 ;;
 10659                           
 10660     130A                     _my_strcmp:	
 10661                           ;psect for function _my_strcmp
 10662                           
 10663     130A                     l2729:	
 10664                           ;incstack = 0
 10665                           ; Regs used in _my_strcmp: [wreg-fsr0h+status,2+status,0]
 10666                           
 10667                           
 10668                           ;dashboard.c: 110: int my_strcmp(unsigned char *str1,unsigned char *str2);dashboard.c: 1
      +                          11: {;dashboard.c: 112:     while(*str1!='\0'&& *str2!='\0')
 10669     130A  2B2A               	goto	l2739
 10670     130B                     l2731:
 10671                           
 10672                           ;dashboard.c: 113:     {;dashboard.c: 114:         if(*str1!=*str2)
 10673     130B  0871               	movf	my_strcmp@str2,w
 10674     130C  0084               	movwf	4
 10675     130D  0800               	movf	0,w
 10676     130E  00F2               	movwf	??_my_strcmp
 10677     130F  0870               	movf	my_strcmp@str1,w
 10678     1310  0084               	movwf	4
 10679     1311  0800               	movf	0,w
 10680     1312  0672               	xorwf	??_my_strcmp,w
 10681     1313  1903               	skipnz
 10682     1314  2B16               	goto	u2351
 10683     1315  2B17               	goto	u2350
 10684     1316                     u2351:
 10685     1316  2B26               	goto	l2737
 10686     1317                     u2350:
 10687     1317                     l2733:
 10688                           
 10689                           ;dashboard.c: 115:         {;dashboard.c: 116:             return (*str1-*str2);
 10690     1317  0871               	movf	my_strcmp@str2,w
 10691     1318  0084               	movwf	4
 10692     1319  0800               	movf	0,w
 10693     131A  00F2               	movwf	??_my_strcmp
 10694     131B  0870               	movf	my_strcmp@str1,w
 10695     131C  0084               	movwf	4
 10696     131D  0800               	movf	0,w
 10697     131E  00F3               	movwf	??_my_strcmp+1
 10698     131F  0872               	movf	??_my_strcmp,w
 10699     1320  0273               	subwf	??_my_strcmp+1,w
 10700     1321  00F0               	movwf	?_my_strcmp
 10701     1322  01F1               	clrf	?_my_strcmp+1
 10702     1323  1C03               	skipc
 10703     1324  03F1               	decf	?_my_strcmp+1,f
 10704     1325  2B3A               	goto	l337
 10705     1326                     l2737:
 10706                           
 10707                           ;dashboard.c: 118:         str1++;
 10708     1326  3001               	movlw	1
 10709     1327  07F0               	addwf	my_strcmp@str1,f
 10710                           
 10711                           ;dashboard.c: 119:         str2++;
 10712     1328  3001               	movlw	1
 10713     1329  07F1               	addwf	my_strcmp@str2,f
 10714     132A                     l2739:
 10715                           
 10716                           ;dashboard.c: 112:     while(*str1!='\0'&& *str2!='\0')
 10717     132A  0870               	movf	my_strcmp@str1,w
 10718     132B  0084               	movwf	4
 10719     132C  1383               	bcf	3,7	;select IRP bank0
 10720     132D  0800               	movf	0,w
 10721     132E  1903               	btfsc	3,2
 10722     132F  2B31               	goto	u2361
 10723     1330  2B32               	goto	u2360
 10724     1331                     u2361:
 10725     1331  2B17               	goto	l2733
 10726     1332                     u2360:
 10727     1332                     l2741:
 10728     1332  0871               	movf	my_strcmp@str2,w
 10729     1333  0084               	movwf	4
 10730     1334  0800               	movf	0,w
 10731     1335  1D03               	btfss	3,2
 10732     1336  2B38               	goto	u2371
 10733     1337  2B39               	goto	u2370
 10734     1338                     u2371:
 10735     1338  2B0B               	goto	l2731
 10736     1339                     u2370:
 10737     1339  2B17               	goto	l2733
 10738     133A                     l337:
 10739     133A  0008               	return
 10740     133B                     __end_of_my_strcmp:
 10741                           
 10742                           	psect	text45
 10743     10F6                     __ptext45:	
 10744 ;; *************** function _clcd_putch *****************
 10745 ;; Defined at:
 10746 ;;		line 56 in file "clcd.c"
 10747 ;; Parameters:    Size  Location     Type
 10748 ;;  data            1    wreg     const unsigned char 
 10749 ;;  addr            1    8[COMMON] unsigned char 
 10750 ;; Auto vars:     Size  Location     Type
 10751 ;;  data            1    9[COMMON] const unsigned char 
 10752 ;; Return value:  Size  Location     Type
 10753 ;;                  1    wreg      void 
 10754 ;; Registers used:
 10755 ;;		wreg, status,2, status,0, pclath, cstack
 10756 ;; Tracked objects:
 10757 ;;		On entry : 0/0
 10758 ;;		On exit  : 0/0
 10759 ;;		Unchanged: 0/0
 10760 ;; Data sizes:     COMMON   BANK0   BANK1   BANK3   BANK2
 10761 ;;      Params:         1       0       0       0       0
 10762 ;;      Locals:         1       0       0       0       0
 10763 ;;      Temps:          0       0       0       0       0
 10764 ;;      Totals:         2       0       0       0       0
 10765 ;;Total ram usage:        2 bytes
 10766 ;; Hardware stack levels used: 1
 10767 ;; This function calls:
 10768 ;;		_clcd_write
 10769 ;; This function is called by:
 10770 ;;		_login_screen
 10771 ;;		_menu_screen
 10772 ;;		_set_time
 10773 ;;		_change_password
 10774 ;; This function uses a non-reentrant model
 10775 ;;
 10776                           
 10777     10F6                     _clcd_putch:	
 10778                           ;psect for function _clcd_putch
 10779                           
 10780                           
 10781                           ;incstack = 0
 10782                           ; Regs used in _clcd_putch: [wreg+status,2+status,0+pclath+cstack]
 10783                           ;clcd_putch@data stored from wreg
 10784     10F6  00F9               	movwf	clcd_putch@data
 10785     10F7                     l2691:
 10786                           
 10787                           ;clcd.c: 56: void clcd_putch(const char data, unsigned char addr);clcd.c: 57: {;clcd.c: 
      +                          58:     clcd_write(addr, 0);
 10788     10F7  01F0               	clrf	clcd_write@mode
 10789     10F8  0878               	movf	clcd_putch@addr,w
 10790     10F9  160A  118A  236D  160A  118A  	fcall	_clcd_write
 10791                           
 10792                           ;clcd.c: 59:     clcd_write(data, 1);
 10793     10FE  01F0               	clrf	clcd_write@mode
 10794     10FF  0AF0               	incf	clcd_write@mode,f
 10795     1100  0879               	movf	clcd_putch@data,w
 10796     1101  160A  118A  236D  160A  118A  	fcall	_clcd_write
 10797     1106                     l230:
 10798     1106  0008               	return
 10799     1107                     __end_of_clcd_putch:
 10800                           
 10801                           	psect	text46
 10802     12AB                     __ptext46:	
 10803 ;; *************** function _clcd_print *****************
 10804 ;; Defined at:
 10805 ;;		line 62 in file "clcd.c"
 10806 ;; Parameters:    Size  Location     Type
 10807 ;;  str             2    4[COMMON] PTR const unsigned char 
 10808 ;;		 -> STR_50(17), STR_40(13), STR_39(9), STR_38(8), 
 10809 ;;		 -> STR_37(14), STR_36(13), STR_35(13), STR_34(12), 
 10810 ;;		 -> STR_33(12), STR_32(9), STR_31(13), view_log@line2(17), 
 10811 ;;		 -> view_log@line1(17), STR_30(14), STR_29(5), STR_28(16), 
 10812 ;;		 -> STR_27(10), STR_26(13), STR_25(10), STR_24(9), 
 10813 ;;		 -> STR_23(15), STR_22(15), STR_21(15), attempt_s(2), 
 10814 ;;		 -> STR_20(14), STR_19(15), STR_18(15), STR_17(16), 
 10815 ;;		 -> STR_16(15), speed(3), STR_15(17), STR_14(3), 
 10816 ;;		 -> STR_13(3), STR_12(3), STR_11(3), STR_10(3), 
 10817 ;;		 -> STR_9(3), STR_8(3), STR_7(3), time(9), 
 10818 ;;  addr            1    6[COMMON] unsigned char 
 10819 ;; Auto vars:     Size  Location     Type
 10820 ;;		None
 10821 ;; Return value:  Size  Location     Type
 10822 ;;                  1    wreg      void 
 10823 ;; Registers used:
 10824 ;;		wreg, fsr0l, fsr0h, status,2, status,0, pclath, btemp1, cstack
 10825 ;; Tracked objects:
 10826 ;;		On entry : 0/0
 10827 ;;		On exit  : 0/0
 10828 ;;		Unchanged: 0/0
 10829 ;; Data sizes:     COMMON   BANK0   BANK1   BANK3   BANK2
 10830 ;;      Params:         3       0       0       0       0
 10831 ;;      Locals:         0       0       0       0       0
 10832 ;;      Temps:          0       0       0       0       0
 10833 ;;      Totals:         3       0       0       0       0
 10834 ;;Total ram usage:        3 bytes
 10835 ;; Hardware stack levels used: 1
 10836 ;; This function calls:
 10837 ;;		_clcd_write
 10838 ;; This function is called by:
 10839 ;;		_display_time
 10840 ;;		_dashboard
 10841 ;;		_login_screen
 10842 ;;		_menu_screen
 10843 ;;		_view_log
 10844 ;;		_clear_log
 10845 ;;		_set_time
 10846 ;;		_change_password
 10847 ;;		_download_log
 10848 ;; This function uses a non-reentrant model
 10849 ;;
 10850                           
 10851     12AB                     _clcd_print:	
 10852                           ;psect for function _clcd_print
 10853                           
 10854     12AB                     l2545:	
 10855                           ;incstack = 0
 10856                           ; Regs used in _clcd_print: [wreg-fsr0h+status,2+status,0+pclath+btemp1+cstack]
 10857                           
 10858                           
 10859                           ;clcd.c: 62: void clcd_print(const char *str, unsigned char addr);clcd.c: 63: {;clcd.c: 
      +                          64:     clcd_write(addr, 0);
 10860     12AB  01F0               	clrf	clcd_write@mode
 10861     12AC  0876               	movf	clcd_print@addr,w
 10862     12AD  160A  118A  236D  160A  118A  	fcall	_clcd_write
 10863                           
 10864                           ;clcd.c: 66:     while (*str != '\0')
 10865     12B2  2AC9               	goto	l2551
 10866     12B3                     l2547:
 10867                           
 10868                           ;clcd.c: 67:     {;clcd.c: 68:         clcd_write(*str, 1);
 10869     12B3  01F0               	clrf	clcd_write@mode
 10870     12B4  0AF0               	incf	clcd_write@mode,f
 10871     12B5  0875               	movf	clcd_print@str+1,w
 10872     12B6  00FF               	movwf	btemp1
 10873     12B7  0874               	movf	clcd_print@str,w
 10874     12B8  0084               	movwf	4
 10875     12B9  160A  118A  2000  160A  118A  	fcall	stringtab
 10876     12BE  160A  118A  236D  160A  118A  	fcall	_clcd_write
 10877     12C3                     l2549:
 10878                           
 10879                           ;clcd.c: 69:         str++;
 10880     12C3  3001               	movlw	1
 10881     12C4  07F4               	addwf	clcd_print@str,f
 10882     12C5  1803               	skipnc
 10883     12C6  0AF5               	incf	clcd_print@str+1,f
 10884     12C7  3000               	movlw	0
 10885     12C8  07F5               	addwf	clcd_print@str+1,f
 10886     12C9                     l2551:
 10887                           
 10888                           ;clcd.c: 66:     while (*str != '\0')
 10889     12C9  0875               	movf	clcd_print@str+1,w
 10890     12CA  1283               	bcf	3,5	;RP0=0, select bank0
 10891     12CB  1303               	bcf	3,6	;RP1=0, select bank0
 10892     12CC  00FF               	movwf	btemp1
 10893     12CD  0874               	movf	clcd_print@str,w
 10894     12CE  0084               	movwf	4
 10895     12CF  160A  118A  2000  160A  118A  	fcall	stringtab
 10896     12D4  3A00               	xorlw	0
 10897     12D5  1D03               	skipz
 10898     12D6  2AD8               	goto	u2111
 10899     12D7  2AD9               	goto	u2110
 10900     12D8                     u2111:
 10901     12D8  2AB3               	goto	l2547
 10902     12D9                     u2110:
 10903     12D9                     l236:
 10904     12D9  0008               	return
 10905     12DA                     __end_of_clcd_print:
 10906                           
 10907                           	psect	text47
 10908     136D                     __ptext47:	
 10909 ;; *************** function _clcd_write *****************
 10910 ;; Defined at:
 10911 ;;		line 4 in file "clcd.c"
 10912 ;; Parameters:    Size  Location     Type
 10913 ;;  byte            1    wreg     unsigned char 
 10914 ;;  mode            1    0[COMMON] unsigned char 
 10915 ;; Auto vars:     Size  Location     Type
 10916 ;;  byte            1    3[COMMON] unsigned char 
 10917 ;; Return value:  Size  Location     Type
 10918 ;;                  1    wreg      void 
 10919 ;; Registers used:
 10920 ;;		wreg, status,2, status,0
 10921 ;; Tracked objects:
 10922 ;;		On entry : 0/0
 10923 ;;		On exit  : 0/0
 10924 ;;		Unchanged: 0/0
 10925 ;; Data sizes:     COMMON   BANK0   BANK1   BANK3   BANK2
 10926 ;;      Params:         1       0       0       0       0
 10927 ;;      Locals:         1       0       0       0       0
 10928 ;;      Temps:          2       0       0       0       0
 10929 ;;      Totals:         4       0       0       0       0
 10930 ;;Total ram usage:        4 bytes
 10931 ;; Hardware stack levels used: 1
 10932 ;; This function calls:
 10933 ;;		Nothing
 10934 ;; This function is called by:
 10935 ;;		_main
 10936 ;;		_init_display_controller
 10937 ;;		_clcd_putch
 10938 ;;		_clcd_print
 10939 ;;		_login_screen
 10940 ;;		_menu_screen
 10941 ;;		_view_log
 10942 ;;		_clear_log
 10943 ;;		_set_time
 10944 ;;		_change_password
 10945 ;; This function uses a non-reentrant model
 10946 ;;
 10947                           
 10948     136D                     _clcd_write:	
 10949                           ;psect for function _clcd_write
 10950                           
 10951                           
 10952                           ;incstack = 0
 10953                           ; Regs used in _clcd_write: [wreg+status,2+status,0]
 10954                           ;clcd_write@byte stored from wreg
 10955     136D  00F3               	movwf	clcd_write@byte
 10956     136E                     l2517:
 10957                           
 10958                           ;clcd.c: 4:  void clcd_write(unsigned char byte, unsigned char mode);clcd.c: 5: {;clcd.c
      +                          : 6:     RE2 = mode;
 10959     136E  1870               	btfsc	clcd_write@mode,0
 10960     136F  2B71               	goto	u2081
 10961     1370  2B75               	goto	u2080
 10962     1371                     u2081:
 10963     1371  1283               	bcf	3,5	;RP0=0, select bank0
 10964     1372  1303               	bcf	3,6	;RP1=0, select bank0
 10965     1373  1509               	bsf	9,2	;volatile
 10966     1374  2B78               	goto	u2094
 10967     1375                     u2080:
 10968     1375  1283               	bcf	3,5	;RP0=0, select bank0
 10969     1376  1303               	bcf	3,6	;RP1=0, select bank0
 10970     1377  1109               	bcf	9,2	;volatile
 10971     1378                     u2094:
 10972     1378                     l2519:
 10973                           
 10974                           ;clcd.c: 8:     PORTD = byte & 0xF0;
 10975     1378  0873               	movf	clcd_write@byte,w
 10976     1379  39F0               	andlw	240
 10977     137A  0088               	movwf	8	;volatile
 10978     137B                     l2521:
 10979                           
 10980                           ;clcd.c: 9:     RE1 = 1;
 10981     137B  1489               	bsf	9,1	;volatile
 10982     137C                     l2523:
 10983                           
 10984                           ;clcd.c: 10:     _delay((unsigned long)((100)*(20000000/4000000.0)));
 10985     137C  30A6               	movlw	166
 10986     137D  00F1               	movwf	??_clcd_write
 10987     137E                     u4267:
 10988     137E  0BF1               	decfsz	??_clcd_write,f
 10989     137F  2B7E               	goto	u4267
 10990     1380  0000               	nop
 10991     1381                     l2525:
 10992                           
 10993                           ;clcd.c: 11:     RE1 = 0;
 10994     1381  1283               	bcf	3,5	;RP0=0, select bank0
 10995     1382  1303               	bcf	3,6	;RP1=0, select bank0
 10996     1383  1089               	bcf	9,1	;volatile
 10997     1384                     l2527:
 10998                           
 10999                           ;clcd.c: 13:     PORTD = (byte & 0x0F) << 4;
 11000     1384  0873               	movf	clcd_write@byte,w
 11001     1385  390F               	andlw	15
 11002     1386  00F1               	movwf	??_clcd_write
 11003     1387  3003               	movlw	3
 11004     1388                     u2105:
 11005     1388  1003               	clrc
 11006     1389  0DF1               	rlf	??_clcd_write,f
 11007     138A  3EFF               	addlw	-1
 11008     138B  1D03               	skipz
 11009     138C  2B88               	goto	u2105
 11010     138D  1003               	clrc
 11011     138E  0D71               	rlf	??_clcd_write,w
 11012     138F  0088               	movwf	8	;volatile
 11013     1390                     l2529:
 11014                           
 11015                           ;clcd.c: 14:     RE1 = 1;
 11016     1390  1489               	bsf	9,1	;volatile
 11017     1391                     l2531:
 11018                           
 11019                           ;clcd.c: 15:     _delay((unsigned long)((100)*(20000000/4000000.0)));
 11020     1391  30A6               	movlw	166
 11021     1392  00F1               	movwf	??_clcd_write
 11022     1393                     u4277:
 11023     1393  0BF1               	decfsz	??_clcd_write,f
 11024     1394  2B93               	goto	u4277
 11025     1395  0000               	nop
 11026     1396                     l2533:
 11027                           
 11028                           ;clcd.c: 16:     RE1 = 0;
 11029     1396  1283               	bcf	3,5	;RP0=0, select bank0
 11030     1397  1303               	bcf	3,6	;RP1=0, select bank0
 11031     1398  1089               	bcf	9,1	;volatile
 11032     1399                     l2535:
 11033                           
 11034                           ;clcd.c: 18:     _delay((unsigned long)((4100)*(20000000/4000000.0)));
 11035     1399  301B               	movlw	27
 11036     139A  00F2               	movwf	??_clcd_write+1
 11037     139B  309E               	movlw	158
 11038     139C  00F1               	movwf	??_clcd_write
 11039     139D                     u4287:
 11040     139D  0BF1               	decfsz	??_clcd_write,f
 11041     139E  2B9D               	goto	u4287
 11042     139F  0BF2               	decfsz	??_clcd_write+1,f
 11043     13A0  2B9D               	goto	u4287
 11044     13A1  0000               	nop
 11045     13A2                     l221:
 11046     13A2  0008               	return
 11047     13A3                     __end_of_clcd_write:
 11048     0002                     ___latbits      equ	2
 11049     007E                     btemp           set	126	;btemp
 11050     007E                     btemp0          set	126
 11051     007F                     btemp1          set	127
 11052     007E                     wtemp0          set	126
 11053     007F                     wtemp0a         set	127
 11054     007F                     ttemp0a         set	127
 11055     0080                     ltemp0a         set	128
 11056                           
 11057                           	psect	idloc
 11058                           
 11059                           ;Config register IDLOC0 @ 0x2000
 11060                           ;	unspecified, using default values
 11061     2000                     	org	8192
 11062     2000  3FFF               	dw	16383
 11063                           
 11064                           ;Config register IDLOC1 @ 0x2001
 11065                           ;	unspecified, using default values
 11066     2001                     	org	8193
 11067     2001  3FFF               	dw	16383
 11068                           
 11069                           ;Config register IDLOC2 @ 0x2002
 11070                           ;	unspecified, using default values
 11071     2002                     	org	8194
 11072     2002  3FFF               	dw	16383
 11073                           
 11074                           ;Config register IDLOC3 @ 0x2003
 11075                           ;	unspecified, using default values
 11076     2003                     	org	8195
 11077     2003  3FFF               	dw	16383
 11078                           
 11079                           	psect	config
 11080                           
 11081                           ;Config register CONFIG @ 0x2007
 11082                           ;	Oscillator Selection bits
 11083                           ;	FOSC = 0x3, unprogrammed default
 11084                           ;	Watchdog Timer Enable bit
 11085                           ;	WDTE = OFF, WDT disabled
 11086                           ;	Power-up Timer Enable bit
 11087                           ;	PWRTE = 0x1, unprogrammed default
 11088                           ;	Brown-out Reset Enable bit
 11089                           ;	BOREN = 0x1, unprogrammed default
 11090                           ;	Low-Voltage (Single-Supply) In-Circuit Serial Programming Enable bit
 11091                           ;	LVP = 0x1, unprogrammed default
 11092                           ;	Data EEPROM Memory Code Protection bit
 11093                           ;	CPD = 0x1, unprogrammed default
 11094                           ;	Flash Program Memory Write Enable bits
 11095                           ;	WRT = 0x3, unprogrammed default
 11096                           ;	In-Circuit Debugger Mode bit
 11097                           ;	DEBUG = 0x1, unprogrammed default
 11098                           ;	Flash Program Memory Code Protection bit
 11099                           ;	CP = 0x1, unprogrammed default
 11100     2007                     	org	8199
 11101     2007  3FFB               	dw	16379

Data Sizes:
    Strings     466
    Constant    0
    Data        58
    BSS         35
    Persistent  0
    Stack       0

Auto Spaces:
    Space          Size  Autos    Used
    COMMON           14     14      14
    BANK0            80     49      78
    BANK1            80      0      64
    BANK3            96      0       0
    BANK2            96      0       0

Pointer List with Targets:

    change_password@main_pwd	PTR unsigned char  size(1) Largest target is 5
		 -> pass(BANK1[5]), 

    clcd_print@str	PTR const unsigned char  size(2) Largest target is 17
		 -> attempt_s(BANK0[2]), speed(BANK0[3]), STR_10(CODE[3]), STR_11(CODE[3]), 
		 -> STR_12(CODE[3]), STR_13(CODE[3]), STR_14(CODE[3]), STR_15(CODE[17]), 
		 -> STR_16(CODE[15]), STR_17(CODE[16]), STR_18(CODE[15]), STR_19(CODE[15]), 
		 -> STR_20(CODE[14]), STR_21(CODE[15]), STR_22(CODE[15]), STR_23(CODE[15]), 
		 -> STR_24(CODE[9]), STR_25(CODE[10]), STR_26(CODE[13]), STR_27(CODE[10]), 
		 -> STR_28(CODE[16]), STR_29(CODE[5]), STR_30(CODE[14]), STR_31(CODE[13]), 
		 -> STR_32(CODE[9]), STR_33(CODE[12]), STR_34(CODE[12]), STR_35(CODE[13]), 
		 -> STR_36(CODE[13]), STR_37(CODE[14]), STR_38(CODE[8]), STR_39(CODE[9]), 
		 -> STR_40(CODE[13]), STR_50(CODE[17]), STR_7(CODE[3]), STR_8(CODE[3]), 
		 -> STR_9(CODE[3]), time(BANK1[9]), view_log@line1(BANK0[17]), view_log@line2(BANK0[17]), 

    display_time@clock_reg	PTR unsigned char  size(1) Largest target is 3
		 -> clock_reg(BANK0[3]), 

    event	PTR unsigned char [8] size(2) Largest target is 3
		 -> STR_10(CODE[3]), STR_11(CODE[3]), STR_12(CODE[3]), STR_13(CODE[3]), 
		 -> STR_14(CODE[3]), STR_7(CODE[3]), STR_8(CODE[3]), STR_9(CODE[3]), 

    gear	PTR unsigned char [6] size(2) Largest target is 3
		 -> STR_1(CODE[3]), STR_2(CODE[3]), STR_3(CODE[3]), STR_4(CODE[3]), 
		 -> STR_5(CODE[3]), STR_6(CODE[3]), 

    get_time@clock_reg	PTR unsigned char  size(1) Largest target is 3
		 -> clock_reg(BANK0[3]), set_time@clock_reg(BANK0[3]), 

    login_screen@oper	PTR unsigned char  size(1) Largest target is 1
		 -> main@operation(BANK0[1]), 

    menu	PTR const unsigned char [6] size(2) Largest target is 16
		 -> STR_24(CODE[9]), STR_25(CODE[10]), STR_26(CODE[13]), STR_27(CODE[10]), 
		 -> STR_28(CODE[16]), STR_29(CODE[5]), 

    my_strcmp@str1	PTR unsigned char  size(1) Largest target is 5
		 -> change_password@new_pwd(BANK0[5]), user_pass(BANK0[5]), 

    my_strcmp@str2	PTR unsigned char  size(1) Largest target is 5
		 -> change_password@confirm_pwd(BANK0[5]), pass(BANK1[5]), 

    uart_tx_string@s	PTR unsigned char  size(2) Largest target is 35
		 -> STR_41(CODE[35]), STR_42(CODE[31]), STR_43(CODE[3]), STR_44(CODE[30]), 
		 -> STR_45(CODE[31]), STR_46(CODE[4]), STR_47(CODE[4]), STR_48(CODE[7]), 
		 -> STR_49(CODE[3]), 


Critical Paths under _main in COMMON

    _main->_change_password
    _main->_login_screen
    _view_log->___lwdiv
    _view_log->_clcd_print
    _set_time->_clcd_putch
    _set_time->_write_ds1307
    _menu_screen->_clcd_putch
    _login_screen->_clcd_putch
    _init_i2c->___lldiv
    _init_ds1307->_write_ds1307
    _write_ds1307->___awdiv
    _init_clcd->_init_display_controller
    _init_display_controller->_clcd_write
    _download_log->___lwdiv
    _download_log->_clcd_print
    _download_log->_uart_tx_string
    _uart_tx_string->_uart_tx_char
    _uart_tx_char->_read_external_eeprom
    _read_external_eeprom->_i2c_read
    _dashboard->___xxtofl
    _store_event->_write_external_eeprom
    _write_external_eeprom->_i2c_write
    _get_time->_read_ds1307
    _read_ds1307->_i2c_read
    _display_time->_clcd_print
    ___xxtofl->_read_adc
    ___fltol->___xxtofl
    ___fldiv->___xxtofl
    _clear_log->_clcd_print
    _change_password->_clcd_putch
    _clcd_putch->___awdiv
    _clcd_print->_clcd_write

Critical Paths under _main in BANK0

    _main->_dashboard
    _init_config->_init_i2c
    _dashboard->___fltol
    ___fltol->___fldiv
    ___fldiv->___xxtofl

Critical Paths under _main in BANK1

    None.

Critical Paths under _main in BANK3

    None.

Critical Paths under _main in BANK2

    None.

Call Graph Tables:

 ---------------------------------------------------------------------------------
 (Depth) Function   	        Calls       Base Space   Used Autos Params    Refs
 ---------------------------------------------------------------------------------
 (0) _main                                                 2     2      0   13908
                                             47 BANK0      2     2      0
                    _change_password
                         _clcd_write
                          _clear_log
                          _dashboard
                       _download_log
                        _init_config
                       _login_screen
                        _menu_screen
                _read_digital_keypad
                           _set_time
                           _view_log
 ---------------------------------------------------------------------------------
 (1) _view_log                                            44    44      0    2464
                                              7 COMMON     3     3      0
                                              0 BANK0     41    41      0
                            ___lwdiv
                             ___wmul
                         _clcd_print
                         _clcd_write
                _read_digital_keypad
               _read_external_eeprom
 ---------------------------------------------------------------------------------
 (2) ___wmul                                               6     2      4      96
                                              0 COMMON     6     2      4
 ---------------------------------------------------------------------------------
 (1) _set_time                                            17    17      0    2430
                                              0 BANK0     17    17      0
                            ___awdiv
                            ___awmod
                             ___bmul
                         _clcd_print
                         _clcd_putch
                         _clcd_write
                           _get_time
                _read_digital_keypad
                       _write_ds1307
 ---------------------------------------------------------------------------------
 (2) ___bmul                                               3     2      1     110
                                              0 COMMON     3     2      1
 ---------------------------------------------------------------------------------
 (2) ___awmod                                              6     2      4     316
                                              0 COMMON     6     2      4
 ---------------------------------------------------------------------------------
 (2) ___awdiv                                              8     4      4     312
                                              0 COMMON     8     4      4
 ---------------------------------------------------------------------------------
 (1) _menu_screen                                          7     7      0     954
                                             10 COMMON     3     3      0
                                              0 BANK0      4     4      0
                         _clcd_print
                         _clcd_putch
                         _clcd_write
                _read_digital_keypad
 ---------------------------------------------------------------------------------
 (1) _login_screen                                         5     4      1     843
                                             10 COMMON     4     3      1
                                              0 BANK0      1     1      0
                         _clcd_print
                         _clcd_putch
                         _clcd_write
                          _my_strcmp
                _read_digital_keypad
 ---------------------------------------------------------------------------------
 (1) _init_config                                          0     0      0     541
                           _init_adc
                          _init_clcd
                _init_digital_keypad
                        _init_ds1307
                           _init_i2c
                          _init_uart
 ---------------------------------------------------------------------------------
 (2) _init_uart                                            0     0      0       0
 ---------------------------------------------------------------------------------
 (2) _init_i2c                                             8     4      4     187
                                              0 BANK0      8     4      4
                            ___lldiv
 ---------------------------------------------------------------------------------
 (3) ___lldiv                                             14     6      8     164
                                              0 COMMON    14     6      8
 ---------------------------------------------------------------------------------
 (2) _init_ds1307                                          1     1      0     241
                                             10 COMMON     1     1      0
                        _read_ds1307
                       _write_ds1307
 ---------------------------------------------------------------------------------
 (3) _write_ds1307                                         2     1      1      84
                                              8 COMMON     2     1      1
                            ___awdiv (ARG)
                            ___awmod (ARG)
                          _i2c_start
                           _i2c_stop
                          _i2c_write
 ---------------------------------------------------------------------------------
 (2) _init_digital_keypad                                  0     0      0       0
 ---------------------------------------------------------------------------------
 (2) _init_clcd                                            0     0      0     113
            _init_display_controller
 ---------------------------------------------------------------------------------
 (3) _init_display_controller                              2     2      0     113
                                              4 COMMON     2     2      0
                         _clcd_write
 ---------------------------------------------------------------------------------
 (2) _init_adc                                             0     0      0       0
 ---------------------------------------------------------------------------------
 (1) _download_log                                         7     7      0     974
                                              7 COMMON     6     6      0
                            ___lwdiv
                         _clcd_print
               _read_external_eeprom
                       _uart_tx_char
                     _uart_tx_string
 ---------------------------------------------------------------------------------
 (2) _uart_tx_string                                       2     0      2      83
                                              5 COMMON     2     0      2
                       _uart_tx_char
 ---------------------------------------------------------------------------------
 (3) _uart_tx_char                                         1     1      0      29
                                              4 COMMON     1     1      0
               _read_external_eeprom (ARG)
 ---------------------------------------------------------------------------------
 (2) _read_external_eeprom                                 2     2      0     133
                                              2 COMMON     2     2      0
                           _i2c_read
                      _i2c_rep_start
                          _i2c_start
                           _i2c_stop
                          _i2c_write
 ---------------------------------------------------------------------------------
 (1) _dashboard                                            5     5      0    3189
                                             42 BANK0      5     5      0
                            ___fldiv
                            ___fltol
                            ___lwdiv
                            ___lwmod
                           ___xxtofl
                         _clcd_print
                       _display_time
                           _get_time
                           _read_adc
                        _store_event
 ---------------------------------------------------------------------------------
 (2) _store_event                                          8     8      0     220
                                              5 COMMON     8     8      0
              _write_external_eeprom
 ---------------------------------------------------------------------------------
 (3) _write_external_eeprom                                4     3      1     108
                                              1 COMMON     4     3      1
                          _i2c_start
                           _i2c_stop
                          _i2c_write
 ---------------------------------------------------------------------------------
 (2) _read_adc                                             6     4      2      52
                                              0 COMMON     6     4      2
 ---------------------------------------------------------------------------------
 (2) _get_time                                             1     0      1     201
                                              4 COMMON     1     0      1
                        _read_ds1307
 ---------------------------------------------------------------------------------
 (3) _read_ds1307                                          2     2      0     133
                                              2 COMMON     2     2      0
                           _i2c_read
                      _i2c_rep_start
                          _i2c_start
                           _i2c_stop
                          _i2c_write
 ---------------------------------------------------------------------------------
 (4) _i2c_write                                            1     1      0      29
                                              0 COMMON     1     1      0
                  _i2c_wait_for_idle
 ---------------------------------------------------------------------------------
 (4) _i2c_rep_start                                        0     0      0       0
                          _i2c_start
                           _i2c_stop
 ---------------------------------------------------------------------------------
 (5) _i2c_stop                                             0     0      0       0
                  _i2c_wait_for_idle
 ---------------------------------------------------------------------------------
 (5) _i2c_start                                            0     0      0       0
                  _i2c_wait_for_idle
 ---------------------------------------------------------------------------------
 (4) _i2c_read                                             2     2      0      52
                                              0 COMMON     2     2      0
                  _i2c_wait_for_idle
 ---------------------------------------------------------------------------------
 (6) _i2c_wait_for_idle                                    0     0      0       0
 ---------------------------------------------------------------------------------
 (2) _display_time                                         2     1      1     371
                                              7 COMMON     2     1      1
                         _clcd_print
 ---------------------------------------------------------------------------------
 (2) ___xxtofl                                            14    10      4     337
                                              6 COMMON     8     4      4
                                              0 BANK0      6     6      0
                           _read_adc (ARG)
 ---------------------------------------------------------------------------------
 (2) ___lwmod                                              5     1      4     161
                                              0 COMMON     5     1      4
 ---------------------------------------------------------------------------------
 (2) ___lwdiv                                              7     3      4     168
                                              0 COMMON     7     3      4
 ---------------------------------------------------------------------------------
 (2) ___fltol                                             10     6      4     230
                                             32 BANK0     10     6      4
                            ___fldiv (ARG)
                           ___xxtofl (ARG)
                           _read_adc (ARG)
 ---------------------------------------------------------------------------------
 (2) ___fldiv                                             26    18      8    1124
                                              6 BANK0     26    18      8
                           ___xxtofl (ARG)
                           _read_adc (ARG)
 ---------------------------------------------------------------------------------
 (1) _clear_log                                            3     3      0     351
                                              7 COMMON     3     3      0
                         _clcd_print
                         _clcd_write
 ---------------------------------------------------------------------------------
 (1) _change_password                                     25    24      1    1881
                                             10 COMMON     4     3      1
                                              0 BANK0     21    21      0
                         _clcd_print
                         _clcd_putch
                         _clcd_write
                          _my_strcmp
                _read_digital_keypad
 ---------------------------------------------------------------------------------
 (2) _read_digital_keypad                                  2     2      0      29
                                              0 COMMON     2     2      0
 ---------------------------------------------------------------------------------
 (2) _my_strcmp                                            4     2      2     182
                                              0 COMMON     4     2      2
 ---------------------------------------------------------------------------------
 (2) _clcd_putch                                           2     1      1     191
                                              8 COMMON     2     1      1
                            ___awdiv (ARG)
                            ___awmod (ARG)
                         _clcd_write
 ---------------------------------------------------------------------------------
 (3) _clcd_print                                           3     0      3     238
                                              4 COMMON     3     0      3
                         _clcd_write
 ---------------------------------------------------------------------------------
 (4) _clcd_write                                           4     3      1     113
                                              0 COMMON     4     3      1
 ---------------------------------------------------------------------------------
 Estimated maximum stack depth 6
 ---------------------------------------------------------------------------------

 Call Graph Graphs:

 _main (ROOT)
   _change_password
     _clcd_print
       _clcd_write
     _clcd_putch
       ___awdiv (ARG)
       ___awmod (ARG)
       _clcd_write (ARG)
     _clcd_write
     _my_strcmp
     _read_digital_keypad
   _clcd_write
   _clear_log
     _clcd_print
     _clcd_write
   _dashboard
     ___fldiv
       ___xxtofl (ARG)
         _read_adc (ARG)
       _read_adc (ARG)
     ___fltol
       ___fldiv (ARG)
       ___xxtofl (ARG)
       _read_adc (ARG)
     ___lwdiv
     ___lwmod
     ___xxtofl
     _clcd_print
     _display_time
       _clcd_print
     _get_time
       _read_ds1307
         _i2c_read
           _i2c_wait_for_idle
         _i2c_rep_start
           _i2c_start
             _i2c_wait_for_idle
           _i2c_stop
             _i2c_wait_for_idle
         _i2c_start
         _i2c_stop
         _i2c_write
           _i2c_wait_for_idle
     _read_adc
     _store_event
       _write_external_eeprom
         _i2c_start
         _i2c_stop
         _i2c_write
   _download_log
     ___lwdiv
     _clcd_print
     _read_external_eeprom
       _i2c_read
       _i2c_rep_start
       _i2c_start
       _i2c_stop
       _i2c_write
     _uart_tx_char
       _read_external_eeprom (ARG)
     _uart_tx_string
       _uart_tx_char
   _init_config
     _init_adc
     _init_clcd
       _init_display_controller
         _clcd_write
     _init_digital_keypad
     _init_ds1307
       _read_ds1307
       _write_ds1307
         ___awdiv (ARG)
         ___awmod (ARG)
         _i2c_start (ARG)
         _i2c_stop (ARG)
         _i2c_write (ARG)
     _init_i2c
       ___lldiv
     _init_uart
   _login_screen
     _clcd_print
     _clcd_putch
     _clcd_write
     _my_strcmp
     _read_digital_keypad
   _menu_screen
     _clcd_print
     _clcd_putch
     _clcd_write
     _read_digital_keypad
   _read_digital_keypad
   _set_time
     ___awdiv
     ___awmod
     ___bmul
     _clcd_print
     _clcd_putch
     _clcd_write
     _get_time
     _read_digital_keypad
     _write_ds1307
   _view_log
     ___lwdiv
     ___wmul
     _clcd_print
     _clcd_write
     _read_digital_keypad
     _read_external_eeprom

Address spaces:
Name               Size   Autos  Total    Usage
BANK3               96      0       0      0.0%
BITBANK3            96      0       0      0.0%
BANK2               96      0       0      0.0%
BITBANK2            96      0       0      0.0%
BANK1               80      0      64     80.0%
BITBANK1            80      0       0      0.0%
BANK0               80     49      78     97.5%
BITBANK0            80      0       0      0.0%
COMMON              14     14      14    100.0%
BITCOMMON           14      0       0      0.0%
DATA                 0      0     156      0.0%
STACK                0      0       0      0.0%


Microchip Technology PIC Macro Assembler V3.10 build 20250813170317 
Symbol Table                                                                                   Sun Jan 11 12:29:15 2026

          menu_screen@prev_start 0020                     ___fldiv@aexp 003F                     ___fldiv@bexp 003E  
                              pc 0002                     ___fldiv@sign 0037            _write_external_eeprom 12DA  
                 ___bmul@product 0071                   clcd_print@addr 0076                    my_strcmp@str1 0070  
                  my_strcmp@str2 0071                               l32 10D9                               l41 10C2  
                             l35 10E5                               l44 10AD                               l52 10CD  
                             l29 136C                               l38 10A4                               l47 11B7  
                             l48 11BA                               l49 11BC                               l73 1118  
                             l82 119B                               l76 127F                               l85 14A5  
                             l79 115C                               _GO 00FA                     ___awdiv@sign 0075  
                             fsr 0004              ___wmul@multiplicand 0072                  uart_tx_string@s 0075  
                            l201 116D                              l204 117B                              l140 1254  
                            l221 13A2                              l230 1106                              l320 0BC2  
                            l224 155F                              l402 04D1                              l331 0AA8  
                            l227 10D8                              l243 1094                              l236 12D9  
                            l181 12AA                              l337 133A                              l249 09FB  
                            l417 11E0                              l345 0E49                              l178 1309  
                            l451 070D                              l532 10F5                              l453 076A  
                            l198 109B                              l374 17A8                              l535 10AF  
                            l544 122B                              l560 0CE3                              l384 17FF  
                            l448 07D0                              l538 10B7                              l802 15C2  
                            l651 1205                              l477 0FFF                              l815 14FC  
                            l649 11ED                              l850 1687                              l499 0FAD  
                            l843 169C                              l675 112B                              l853 169C  
                            l685 1626                              l929 1453                              l939 1411  
                            _RE1 0049                              _RE2 004A                              _PEN 048A  
                            _SEN 0488                              _TX9 04C6                    ?_display_time 0077  
                 clcd_putch@addr 0078                              _pos 0055                              fsr0 0004  
                 clcd_putch@data 0079                              indf 0000                     ___awmod@sign 0075  
                   ___fltol@exp1 0049                             l1030 0282                             l1022 0204  
                           l1006 0116                             l1103 008A                             l1008 028A  
                           l1104 0096                             l1028 0276                             l3001 013A  
                           l1090 002F                             l3011 0165                             l1091 0040  
                           l1092 00C0                             l3021 018A                             l3013 016D  
                           l3005 0143                             l3101 0037                             l3031 01B5  
                           l3023 018B                             l3015 016F                             l3007 0155  
                           l3111 0057                             l1096 006E                             l3041 01D0  
                           l3017 0174                             l3025 0194                             l3033 01B7  
                           l3009 015D                             l3121 008E                             l3113 0065  
                           l3105 0043                             l3201 0D16            ??_read_digital_keypad 0070  
                           l3051 01E8                             l3043 01D4                             l3035 01BD  
                           l3027 01A6                             l3019 0186                             l3131 00B8  
                           l3123 0098                             l3115 0075                             l3107 004E  
                           l3203 0D1F                             l3061 0209                             l3053 01E9  
                           l3045 01D5                             l3037 01C5                             l3029 01A7  
                           l3125 00AE                             l3117 0080                             l3109 0055  
                           l2501 11AE                             l3141 123B                             l3221 0D5A  
                           l3205 0D22                             l3213 0D38                             l3301 174B  
                           l3063 020E                             l3071 023F                             l3055 01ED  
                           l3047 01DE                             l3039 01C7                             l3127 00B3  
                           l3119 0084                             l2503 11B3                             l2511 10C9  
                           l3151 0AC5                             l3143 124A                             l3135 122C  
                           l3231 0D7B                             l3223 0D60                             l3215 0D43  
                           l3207 0D25                             l3311 1798                             l3303 1760  
                           l2521 137B                             l3081 0275                             l3073 024C  
                           l3065 021C                             l3057 0201                             l3049 01E4  
                           l3129 00B7                             l2505 11BB                             l2513 10CD  
                           l3161 0AE4                             l3153 0ACD                             l3145 0AAC  
                           l2601 160E                             l3137 1231                             l3241 0D99  
                           l3233 0D7F                             l3225 0D6A                             l3217 0D4C  
                           l3209 0D2C                             l3321 17C4                             l3313 17B1  
                           l3305 177D                             l3401 0364                             l2531 1391  
                           l2523 137C                             l3083 027A                             l3075 025A  
                           l3067 0220                             l3171 0B08                             l3163 0AF1  
                           l3155 0AD2                             l3147 0AB7                             l2603 160F  
                           l2611 133B                             l3139 1236                             l3251 0DB0  
                           l3243 0D9F                             l3235 0D85                             l3227 0D70  
                           l3219 0D54                             l3331 17E9                             l3315 17B7  
                           l3323 17C7                             l3307 1781                             l3411 0384  
                           l3403 0366                             l2533 1396                             l2525 1381  
                           l2517 136E                             l3085 027E                             l3077 0269  
                           l3069 0239                             l3093 000E                             l2509 10C4  
                           l2701 0A03                             l3181 0B8C                             l3173 0B15  
                           l3157 0AD8                             l3165 0AFA                             l3149 0ABE  
                           l2621 1110                             l2605 1618                             l2613 133E  
                           l3253 0DBF                             l3261 0DE4                             l3245 0DA5  
                           l3237 0D8B                             l3229 0D7A                             l3325 17CD  
                           l3333 17EE                             l3317 17BC                             l3309 1787  
                           l3501 04BD                             l3421 03B6                             l3413 0385  
                           l3405 036F                             l3341 028B                             l2535 1399  
                           l2527 1384                             l2519 1378                             l2551 12C9  
                           l3511 11C1                             l3087 0280                             l3079 026D  
                           l3095 0013                             l2631 1499                             l2623 117C  
                           l2711 0A22                             l3191 0BBE                             l3183 0B9E  
                           l3167 0B00                             l3159 0ADF                             l3175 0B1D  
                           l2543 1140                             l2607 161E                             l2615 1369  
                           l3271 0E09                             l3263 0DEB                             l3255 0DC6  
                           l3239 0D94                             l3335 17F4                             l3327 17D3  
                           l3319 17BE                             l3503 04C2                             l3431 03D6  
                           l3423 03BF                             l3415 0399                             l3407 0375  
                           l3351 02B2                             l3343 0292                             l2529 1390  
                           l2545 12AB                             l3513 11C8                             l3097 0017  
                           l2633 149A                             l2625 1454                             l2481 10D9  
                           l2537 1256                             l2553 12DB                             l2721 0A85  
                           l2713 0A28                             l2705 0A0A                             l3185 0B9F  
                           l3177 0B32                             l3521 0BD5                             l2561 1505  
                           l2641 10D2                             l2617 1107                             l3281 0E2C  
                           l3273 0E14                             l3265 0DEC                             l3257 0DD1  
                           l3249 0DAF                             l3193 0CE4                             l3337 17FB  
                           l3329 17D5                             l2801 157F                             l3601 052C  
                           l3505 04CA                             l3441 03F6                             l3433 03DF  
                           l3425 03C5                             l3417 03B1                             l3409 037E  
                           l3361 02E4                             l3353 02BD                             l3345 0295  
                           l2547 12B3                             l2731 130B                             l2651 09D8  
                           l3515 11D3                             l3099 0027                             l2627 146B  
                           l2483 10DF                             l2491 10AA                             l2539 127E  
                           l2555 12F7                             l2723 0A95                             l2715 0A45  
                           l2707 0A18                             l3187 0BAA                             l3179 0B7A  
                           l3531 0C0A                             l3523 0BDA                             l2635 1095  
                           l2571 152B                             l2563 150C                             l2643 10D3  
                           l2619 110E                             l3275 0E21                             l3267 0DF3  
                           l3259 0DDE                             l3195 0CEB                             l3291 1727  
                           l2811 15A0                             l2803 1582                             l3611 0560  
                           l3603 0537                             l3451 0416                             l3443 03FF  
                           l3435 03E5                             l3427 03CE                             l3419 03B4  
                           l3371 0304                             l3363 02E6                             l3347 02A6  
                           l2549 12C3                             l2741 1332                             l2733 1317  
                           l2661 09ED                             l3701 0EB8                             l3509 11BD  
                           l2901 1412                             l2629 1481                             l2485 109C  
                           l2493 10B8                             l2557 12FB                             l2725 0A9D  
                           l2717 0A4D                             l2709 0A20                             l3189 0BB9  
                           l3541 0C32                             l3533 0C11                             l3517 0BC3  
                           l2581 155A                             l2573 1532                             l2565 151C  
                           l2637 10CE                             l2645 108F                             l3277 0E28  
                           l3285 0E34                             l3269 0DFE                             l3197 0D01  
                           l3293 172B                             l2821 15B9                             l2813 15A6  
                           l2805 1589                             l3621 059B                             l3613 0565  
                           l3605 0540                             l3461 0436                             l3453 041F  
                           l3445 0405                             l3437 03EE                             l3429 03D4  
                           l3381 0324                             l3373 0306                             l3365 02EF  
                           l3349 02AB                             l3357 02CB                             l2671 09F8  
                           l3711 0ECF                             l3703 0EBB                             l2911 1426  
                           l2903 1414                             l2495 119D                             l2487 10A1  
                           l2727 0AA6                             l2719 0A7D                             l2583 10AF  
                           l2751 1215                             l3551 0C52                             l3543 0C34  
                           l3535 0C1A                             l3527 0BE4                             l3519 0BC4  
                           l2575 153E                             l2567 1521                             l2559 14FD  
                           l2639 10D1                             l2591 15D6                             l2647 10E6  
                           l3287 0E3B                             l3279 0E2A                             l3199 0D0E  
                           l3295 172D                             l2823 15BE                             l2815 15A7  
                           l2807 158B                             l2831 14AB                             l3623 05B0  
                           l3615 057A                             l3607 0546                             l3463 043F  
                           l3455 0425                             l3447 040E                             l3439 03F4  
                           l3471 0458                             l3391 0344                             l3383 0326  
                           l3375 030F                             l3367 02F5                             l3359 02E1  
                           l2737 1326                             l2729 130A                             l2673 09FA  
                           l2657 09DD                             l2649 09D3                             l3801 0FD1  
                           l3721 0EE4                             l3713 0ED5                             l3705 0EC1  
                           l2921 1449                             l2913 142A                             l2905 141A  
                           l2497 11A2                             l2489 10A5                             l2585 10B5  
                           l2753 121B                             l3561 0C72                             l3553 0C54  
                           l3545 0C3A                             l3537 0C25                             l3529 0C08  
                           l2577 1543                             l2569 1528                             l2593 15E1  
                           l3289 0E46                             l3297 1734                             l2817 15AE  
                           l2809 158F                             l2841 14C1                             l2833 14B0  
                           l3625 05B6                             l3633 0682                             l3617 0580  
                           l3609 054B                             l2761 11F4                             l3481 046A  
                           l3465 0445                             l3457 042E                             l3449 0414  
                           l3393 0346                             l3385 032F                             l3377 0315  
                           l3369 02FE                             l2691 10F7                             l2739 132A  
                           l2659 09E8                             l3811 0FF8                             l3803 0FDB  
                           l3723 0EE5                             l3715 0ED7                             l3707 0EC3  
                           l2915 143B                             l2907 141D                             l2923 144F  
                           l2931 13E3                             l2499 11AA                             l2683 115E  
                           l2747 1206                             l3571 0CA0                             l3563 0C74  
                           l3555 0C5A                             l3547 0C45                             l3539 0C27  
                           l2579 1553                             l2595 15E5                             l2587 15C3  
                           l3299 173C                             l2819 15B4                             l2851 14DB  
                           l2843 14C4                             l2835 14B2                             l2827 14A6  
                           l2771 111B                             l3651 06C8                             l3635 0688  
                           l3627 0668                             l3643 06A9                             l3619 0595  
                           l2763 11FB                             l2755 11E1                             l3491 0497  
                           l3467 044E                             l3459 0434                             l3395 034F  
                           l3387 0335                             l3379 031E                             l2669 09EF  
                           l3805 0FE1                             l3741 0F1F                             l3725 0EEC  
                           l3717 0EDD                             l3709 0EC8                             l2917 1441  
                           l2909 1424                             l2941 1400                             l2933 13EA  
                           l2685 116C                             l2693 09FC                             l2677 1281  
                           l2749 1207                             l3573 0CAB                             l3565 0C88  
                           l3557 0C65                             l3549 0C47                             l3581 0CC5  
                           l2597 15EE                             l2589 15D3                             l2861 14F8  
                           l2853 14E1                             l2845 14CB                             l2837 14B6  
                           l2829 14A7                             l2773 111F                             l3661 0736  
                           l3653 06D9                             l3645 06B8                             l3637 068F  
                           l3629 0673                             l2765 1201                             l2757 11E3  
                           l3493 049D                             l3477 045C                             l3485 0478  
                           l3469 0454                             l3397 0355                             l3389 033E  
                           l3821 16B4                             l3813 169D                             l3807 0FEB  
                           l3743 0F23                             l3735 0F0A                             l3719 0EE2  
                           l3727 0EF8                             l2951 00C5                             l2871 163B  
                           l2919 1442                             l2943 1407                             l2935 13EC  
                           l2927 13DA                             l2687 1171                             l2679 12A9  
                           l3583 0CCB                             l3575 0CAD                             l3567 0C8A  
                           l3559 0C67                             l2599 1600                             l2791 156C  
                           l2783 1560                             l2855 14E8                             l2847 14CD  
                           l2839 14BB                             l2775 1121                             l3663 0772  
                           l3655 0715                             l3647 06BA                             l3639 069A  
                           l3671 07C9                             l3591 04D7                             l2759 11E7  
                           l3495 04A2                             l3487 0483                             l3479 0464  
                           l3399 035E                             l3831 16D0                             l3823 16B6  
                           l3815 16A2                             l3809 0FF4                             l3761 0F6D  
                           l3745 0F2A                             l3737 0F17                             l3729 0F07  
                           l3681 0E73                             l3673 0E4A                             l2961 00D5  
                           l2953 00C7                             l2881 165D                             l2873 164E  
                           l2865 1627                             l2937 13F0                             l2929 13E0  
                           l2945 140D                             l3585 0CD6                             l3577 0CB8  
                           l3569 0C97                             l2793 1570                             l2785 1561  
                           l2849 14D1                             l2857 14EE                             l2777 1123  
                           l2769 111A                             l3665 077A                             l3657 071C  
                           l3649 06BF                             l3593 04DE                             l3497 04A5  
                           l3489 048E                             l3841 16F3                             l3833 16D8  
                           l3825 16BD                             l3817 16A5                             l3771 0F7D  
                           l3747 0F35                             l3739 0F19                             l3755 0F4E  
                           l3691 0E95                             l3683 0E7A                             l3675 0E6D  
                           l2971 00ED                             l2963 00DA                             l2955 00CB  
                           l2875 164F                             l2867 1632                             l2939 13FA  
                           l2699 09FD                             l3579 0CBA                             l2795 1575  
                           l2787 1565                             l2859 14F3                             l2779 112A  
                           l3667 0783                             l3659 0725                             l3595 04F7  
                           l3499 04AB                             l3843 16F9                             l3835 16DE  
                           l3827 16C4                             l3819 16AE                             l3781 0FA1  
                           l3773 0F83                             l3757 0F55                             l3749 0F40  
                           l3693 0EA4                             l3685 0E85                             l3677 0E70  
                           l2981 00FE                             l2973 00F0                             l2965 00E2  
                           l2957 00CF                             l2949 00C1                             l2877 1657  
                           l2797 1577                             l2789 156A                             l3669 0794  
                           l3597 050E                             l3589 04D2                             l3845 16FF  
                           l3837 16E7                             l3853 1710                             l3829 16CB  
                           l3791 0FB0                             l3783 0FA6                             l3775 0F87  
                           l3767 0F70                             l3759 0F60                             l3695 0EA6  
                           l3687 0E8E                             l3679 0E71                             l2991 011E  
                           l2983 0103                             l2975 00F4                             l2967 00E3  
                           l2959 00D0                             l2895 167C                             l2887 1665  
                           l2879 1659                             l2799 1579                             l3599 0525  
                           l3847 1707                             l3839 16ED                             l3793 0FB5  
                           l3785 0FAF                             l3777 0F8E                             l3769 0F7B  
                           l3697 0EAC                             l2993 012A                             l2985 010B  
                           l2977 00F8                             l2969 00E5                             l2897 168C  
                           l2889 1675                             l3849 1708                             l3795 0FBC  
                           l3779 0F99                             l3699 0EB2                             l2995 012C  
                           l2987 010C                             l2979 00F9                             l2899 1691  
                           l3797 0FC2                             l2989 010E                             l3799 0FC8  
                           l2999 0135                             _ADFM 04FF                             _ADON 00F8  
                           STR_1 09CC                             STR_2 09CF                             STR_3 09C0  
                           STR_4 09C3                             STR_5 09C6                             STR_6 09C9  
                           STR_7 09BD                             STR_8 09CC                             STR_9 09C0  
                           _BRGH 04C2                             u2110 12D9                             u2111 12D8  
                           u3000 01A6                             u2120 1309                             u2200 161E  
                           u2105 1388                             u3001 01A5                             u2121 1308  
                           u2201 161D                             u3010 01BD                             u2050 10DF  
                           u2130 10B5                             u2210 134C                             u3011 01BC  
                           u2051 10DE                             u2131 10B4                             u3100 020E  
                           u3020 01C5                             u2060 10E5                             u2300 1171  
                           u2140 15D3                             u3101 020D                             u3021 01C4  
                           u3005 01A2                             u2061 10E4                             u2301 1170  
                           u2141 15D2                             u3110 0220                             u2070 11B3  
                           u2310 0A03                             u3111 021F                             u2071 11B2  
                           u2311 0A02                             u2215 1347                             u2080 1375  
                           u4000 0FB5                             u3120 022F                             u3040 01D4  
                           u3200 0054                             u2320 0A09                             u2160 15E5  
                           u2081 1371                             u4001 0FB4                             u3041 01D3  
                           u3201 0053                             u2225 145A                             u2321 0A08  
                           u2161 15E4                             u2250 09D8                             u4010 0FC8  
                           u3130 024C                             u2330 0A28                             u2251 09D7  
                           u4011 0FC7                             u3131 024B                             u3035 01C9  
                           u2235 1472                             u2331 0A27                             u2155 15D8  
                           u2260 09E8                             u4020 0FD1                             u3140 0269  
                           u3060 01E8                             u3220 0074                             u2340 0AA6  
                           u3300 0ACD                             u2180 1600                             u2420 1201  
                           u2261 09E7                             u4021 0FD0                             u3141 0268  
                           u3125 022A                             u3061 01E7                             u3221 0073  
                           u2245 1489                             u2341 0AA5                             u3301 0ACC  
                           u2181 15FF                             u2421 1200                             u2405 11EE  
                           u2094 1378                             u2350 1317                             u2270 09ED  
                           u4030 0FE1                             u3150 027E                             u3070 01ED  
                           u3310 0AD8                             u2510 15A0                             u2430 111F  
                           u2351 1316                             u2271 09EC                             u4031 0FE0  
                           u3151 027D                             u3135 0248                             u3071 01EC  
                           u3055 01D7                             u3215 0066                             u3311 0AD7  
                           u2175 15E7                             u2511 159F                             u2431 111E  
                           u2415 11F5                             u2360 1332                             u2280 09F8  
                           u4040 0FFE                             u3080 0201                             u3240 0084  
                           u3160 0013                             u3320 0ADF                             u3400 0D54  
                           u2600 14DB                             u2440 112A                             u2361 1331  
                           u2281 09F7                             u4041 0FFD                             u3145 0265  
                           u3081 0200                             u3241 0083                             u3161 0012  
                           u3321 0ADE                             u2185 15FC                             u3401 0D53  
                           u2505 1590                             u2601 14DA                             u2441 1129  
                           u2370 1339                             u3090 0208                             u3250 008A  
                           u3170 0017                             u3330 0AF1                             u3410 0D5A  
                           u2530 15B4                             u2450 1565                             u4050 16B4  
                           u2371 1338                             u3091 0207                             u3251 0089  
                           u3235 0079                             u3171 0016                             u3331 0AF0  
                           u2195 1610                             u3411 0D59                             u2531 15B3  
                           u2515 159C                             u2451 1564                             u4107 067B  
                           u4051 16B3                             u2700 167B                             u3260 008E  
                           u3180 0037                             u3340 0B00                             u2380 122B  
                           u3420 0D60                             u3500 17B7                             u2540 15B9  
                           u2460 1570                             u2620 14EE                             u4060 16C4  
                           u2701 167A                             u3261 008D                             u3181 0036  
                           u3341 0AFF                             u2381 122A                             u3421 0D5F  
                           u3501 17B6                             u2541 15B8                             u2525 15A8  
                           u2461 156F                             u2621 14ED                             u2605 14D7  
                           u4117 06A2                             u4061 16C3                             u3270 00A3  
                           u3350 0B07                             u3430 0D70                             u3510 17BC  
                           u2470 157F                             u2630 14F3                             u2550 14AB  
                           u2390 11E7                             u4070 16D0                             u2295 1161  
                           u3351 0B06                             u3335 0AED                             u4207 154E  
                           u3431 0D6F                             u4127 0D07                             u3511 17BB  
                           u2471 157E                             u2631 14F2                             u2615 14E2  
                           u2551 14AA                             u2391 11E6                             u4071 16CF  
                           u2720 168C                             u2640 1632                             u2800 144F  
                           u3280 00B3                             u3360 0B15                             u3440 0D85  
                           u3520 17C4                             u2560 14B6                             u3600 049D  
                           u4080 16DE                             u2721 168B                             u2641 1631  
                           u2801 144E                             u3281 00B2                             u3361 0B14  
                           u4217 155C                             u4137 0DD7                             u3441 0D84  
                           u3521 17C3                             u2561 14B5                             u3601 049C  
                           u4081 16DD                             u2730 1691                             u2650 1649  
                           u2810 13E0                             u3290 00B7                             u3370 0BB9  
                           u3450 0D9F                             u3530 17CD                             u2490 158F  
                           u2570 14C1                             u3610 04A2            ?_read_external_eeprom 0070  
                           u2731 1690                             u2715 167E                             u2811 13DF  
                           u3291 00B6                             u3275 009E                             u3195 0046  
                           u3371 0BB8                             u4227 0CDC                             u4147 0E1A  
                           u3451 0D9E                             u3531 17CC                             u2491 158E  
                           u2571 14C0                             u3611 04A1                             u2900 00F8  
                           u2660 165D                             u2740 141A                             u3460 0DBF  
                           u3380 0CEB                             u3540 17D3                             u3700 0546  
                           u3620 04AB                             u4237 11D9                             u2901 00F7  
                           u2661 165C                             u2741 1419                             u3365 0B11  
                           u4157 1501                             u3461 0DBE                             u3381 0CEA  
                           u3541 17D2                             u2485 1583                             u3701 0545  
                           u3621 04AA                             u2910 00FE                             u2670 1664  
                           u2830 13F0                             u3470 0E28                             u3390 0D1F  
                           u3550 17E9                             u2590 14D1                             u3710 054B  
                           u3630 04BD                             u4247 0F46                             u2911 00FD  
                           u2671 1663                             u2655 1644                             u2831 13EF  
                           u3375 0BB5                             u4167 1510                             u3471 0E27  
                           u3391 0D1E                             u3551 17E8                             u2591 14D0  
                           u3711 054A                             u3631 04BC                             u2920 0103  
                           u2760 142A                             u2840 13FA                             u3560 17F4  
                           u3480 173C                             u3800 06B8                             u3720 0565  
                           u3640 04CA                             u4257 0F66                             u2921 0102  
                           u2761 1429                             u2841 13F9                             u2825 13E4  
                           u4177 151E                             u3561 17F3                             u3481 173B  
                           u2585 14C5                             u3801 06B7                             u3721 0564  
                           u3641 04C9                             u4097 02C3                             u2930 011E  
                           u2690 1674                             u3650 0BDA                             u3490 1787  
                           u3810 06BF                             u3730 0580                             u3570 02AB  
                           u4267 137E                             u2931 011D                             u2691 1673  
                           u2755 141E                             u3651 0BD9                             u4187 1534  
                           u3555 17E5                             u3491 1786                             u3811 06BE  
                           u3731 057F                             u3635 04B9                             u3571 02AA  
                           u3900 0EB2                             u2940 013A                             u2780 143B  
                           u2860 140D                             u3660 0CCB                             u3820 06C8  
                           u3740 059B                             u3580 0399                             u4277 1393  
                           u3901 0EB1                             u2941 0139                             u2685 1666  
                           u2781 143A                             u2861 140C                             u2845 13F6  
                           u3661 0CCA                             u4197 1540                             u3821 06C7  
                           u3741 059A                             u3581 0398                             u3910 0EB8  
                           u2950 0174                             u2870 00CF                             u3830 071C  
                           u3750 05B6                             u3590 0477                             u4287 139D  
                           u3911 0EB7                             u2951 0173                             u2871 00CE  
                           u2775 142B                             u2855 1401                             u3831 071B  
                           u3751 05B5                             u3591 0476                             u3920 0EC1  
                           u2880 00D5                             u3840 0725                             u3921 0EC0  
                           u2881 00D4                             u2785 1437                             u3841 0724  
                           u3585 0395                             u3930 0EC8                             u2890 00DA  
                           u3850 077A                             u3931 0EC7                             u2891 00D9  
                           u2795 1443                             u3851 0779                             u3675 04E8  
                           u3595 0473                             u3940 0EDD                             u2980 018A  
                           u3860 0783                             _RCEN 048B                             u3941 0EDC  
                           u2981 0189                             u2965 0176                             u3861 0782  
                           u3765 05E1                             u3685 04FF                             u3950 0EE2  
                           u3870 0E94                             u3790 0688                             u3951 0EE1  
                           u3871 0E93                             u2975 017F                             u3791 0687  
                           u3775 061D                             u3695 0516                             u3960 0F07  
                           u3880 0EA4                             u3961 0F06                             u3881 0EA3  
                           u3785 0659                             u3970 0F1F                             u3890 0EAC  
                           u3971 0F1E                             u3891 0EAB                             u2995 018D  
                           u3980 0F83                             u3981 0F82                             u3990 0FA1  
                           u3991 0FA0                             _SPEN 00C7                             _TXEN 04C5  
                           _TXIF 0064                             _SYNC 04C4                             _R_nW 04A2  
                           _gear 00BC                             _main 169D                             _menu 00B0  
                           _pass 00D2                             _time 00D7                             btemp 007E  
                           start 0000                  ___fldiv@new_exp 0038                   menu_screen@key 0021  
              ___bmul@multiplier 0072                   clcd_write@byte 0073                   clcd_write@mode 0070  
                    _store_event 09FC                    _i2c_rep_start 10B8                     ?_init_ds1307 0070  
                  ___fltol@sign1 0048                            ?_main 0070                     ?_read_ds1307 0070  
                          _ACKEN 048C                            _ACKDT 048D                   ??_display_time 0078  
                __end_of___fldiv 028B                  __end_of___awdiv 15C3                            STR_10 09C3  
                          STR_11 09C6                            STR_20 0919                            STR_12 09C9  
                          STR_21 08DF                            STR_13 09CF                            STR_30 090B  
                          STR_22 08C1                            STR_14 09BA                            STR_23 08EE  
                          STR_31 0941                            STR_15 0890                            STR_40 0927  
                          STR_32 0990                            STR_16 08D0                            STR_24 0999  
                          STR_33 095B                            STR_17 08B1                            STR_41 0800  
                          STR_25 0973                            STR_34 0967                            STR_18 08EE  
                          STR_50 087F                            STR_42 0842                            STR_26 094E  
                          STR_43 083F                            STR_19 08EE                            STR_35 0927  
                          STR_27 097D                            STR_36 0934                            STR_44 0861  
                          STR_28 08A1                  __end_of___awmod 14FD                            STR_37 08FD  
                          STR_45 0823                            STR_29 09B1                            STR_46 09B6  
                          STR_38 09A2                            STR_47 09AD                            STR_39 0987  
                          STR_48 09AA                            STR_49 083F                  __end_of___fltol 169D  
                __end_of___lldiv 1627                      i2c_read@ack 0070                  ___awdiv@divisor 0070  
                __end_of___lwdiv 1454                  __end_of___lwmod 1412                     ?_init_config 0070  
                ___awdiv@counter 0074                            _SPBRG 0099                            _PORTB 0006  
                          _PORTD 0008                            _SSPM3 00A3                            _TRISB 0086  
                          _TRISD 0088                            _SSPEN 00A5                            _TXREG 0019  
                          _nDONE 00FA        write_external_eeprom@data 0071        write_external_eeprom@wait 0072  
                          _event 00A0                            _speed 0063                            btemp0 007E  
                          btemp1 007F                  _change_password 0E4A                     ?_menu_screen 0070  
               ??_uart_tx_string 0077                            pclath 000A                    _attempts_left 006C  
                          status 0003                            wtemp0 007E                 init_ds1307@dummy 007A  
                __initialization 07D1                   ?_i2c_rep_start 0070           ?_write_external_eeprom 0071  
                   __end_of_main 1727                 __end_of_i2c_read 11BD                 __end_of_i2c_stop 10AE  
                  ?_download_log 0070                           ??_main 007E                           _ADCON0 001F  
         ??_read_external_eeprom 0072                           _ADRESH 001E                           _ADRESL 009E  
               ___awdiv@dividend 0072                     i2c_read@data 0071                     _write_ds1307 113F  
                         _SSPADD 0093                           _TRISE1 0449                           _TRISE2 044A  
                         _TRISC6 043E                           _TRISC7 043F                           _SSPBUF 0013  
               __end_of___xxtofl 00C1      __end_of_init_digital_keypad 1095                change_password@ch 002D  
               __end_of_get_time 119C                           ___bmul 1119          _init_display_controller 14FD  
                         ___wmul 11E1                        ??___fldiv 002E                        ??___awdiv 0074  
                      ??___awmod 0074                        ??___fltol 0044                        ??___lldiv 0078  
                      ??___lwdiv 0074                        ??___lwmod 0074                 __end_of_init_i2c 136D  
               __end_of_init_adc 109C                 __end_of_read_adc 117C                   ??_download_log 0077  
               ___awdiv@quotient 0076                  ___awmod@divisor 0070                    main@operation 0050  
                  view_log@line1 0020                    view_log@line2 0031                  ___awmod@counter 0074  
          change_password@cursor 0027          __end_of_change_password 1000                 __end_of_set_time 07D1  
                         ltemp0a 0080                 __end_of_view_log 04D2                           ttemp0a 007F  
                         wtemp0a 007F                 menu_screen@index 0022                     ___xxtofl@arg 0022  
                   ___xxtofl@exp 0021                     ___xxtofl@val 0076                 menu_screen@start 0023  
        __end_of__initialization 07FC             __end_of_display_time 14A6                       ___fltol@f1 0040  
                ??_i2c_rep_start 0070              ___bmul@multiplicand 0070                    ?_login_screen 007A  
                 __pcstackCOMMON 0070                     __pidataBANK0 108C                     __pidataBANK1 13A3  
              __end_of_i2c_start 10A5                __end_of_i2c_write 10CE                _i2c_wait_for_idle 10D9  
             ?_i2c_wait_for_idle 0070                       __pbssBANK0 0051                       __pbssBANK1 00D7  
                      ?_i2c_read 0070                        ?_i2c_stop 0070                   ??_login_screen 007B  
      ??_init_display_controller 0074                       _clcd_print 12AB              ??_i2c_wait_for_idle 0070  
                     _clcd_putch 10F6                       _clcd_write 136D     write_external_eeprom@address 0074  
                     __pmaintext 169D                  read_ds1307@addr 0072                     ?_store_event 0070  
                read_ds1307@data 0073                          ?___bmul 0070                          ?___wmul 0070  
                        _ACKSTAT 048E      __end_of_read_digital_keypad 09FC                        ?___xxtofl 0076  
               ?_change_password 007A        __end_of_i2c_wait_for_idle 10E6                     init_i2c@baud 0020  
                        _SSPCON2 0091                        ?_get_time 0074                       __stringtab 1000  
                     ??_i2c_read 0070                __end_of_dashboard 0BC3                       ??_i2c_stop 0070  
                      ?_init_i2c 0020             __end_of_download_log 0CE4                        ?_init_adc 0070  
                      ?_read_adc 0070                __end_of_clear_log 11E1          ??_write_external_eeprom 0072  
                      ?_set_time 0070               change_password@bit 0030               change_password@key 0032  
                        ___fldiv 00C1                          ___awdiv 1560                          ___awmod 14A6  
                      ?_view_log 0070                          ___fltol 1627                          ___lldiv 15C3  
                        _adc_val 0053                          ___lwdiv 1412                     store_event@i 007C  
                        ___lwmod 13DA                          _address 0051          download_log@eeprom_addr 007C  
                        __ptext1 028B                          __ptext2 11E1                          __ptext3 04D2  
                        __ptext4 1119                          __ptext5 14A6                          __ptext6 1560  
                        __ptext7 1727                          __ptext8 0CE4                          __ptext9 122C  
                     _lock_timer 0057  __end_of_init_display_controller 1560                __end_of_init_clcd 10D9  
                     ??___xxtofl 007A                __end_of_init_uart 10F6                 ___awmod@dividend 0072  
                        main@key 004F                          clrloop0 0004                       ??_get_time 0075  
           end_of_initialization 07FC           change_password@new_pwd 0028                      set_time@key 002A  
                     ??_init_i2c 0024                       ??_init_adc 0070                       ??_read_adc 0072  
                    ?_clcd_print 0074                      ?_clcd_putch 0078                  ___lldiv@divisor 0070  
                  ?_uart_tx_char 0070                      ?_clcd_write 0070                __end_of_my_strcmp 133B  
                ___lldiv@counter 007D                       ??_set_time 0020                       ??_view_log 0077  
                   __pstringtext 0800                  read_adc@channel 0075                     _display_time 1454  
              view_log@log_index 0046                    i2c_write@data 0070             __end_of_login_screen 0E4A  
                  ___xxtofl@sign 0020                      ___fldiv@grs 003A                      ___fldiv@rem 0033  
                  clcd_print@str 0074         read_external_eeprom@data 0073                   ??_uart_tx_char 0074  
                 __end_of___bmul 112C                view_log@total_log 0045                   __end_of___wmul 1206  
                    view_log@key 0044              start_initialization 07D1                        _i2c_start 109C  
                      _i2c_write 10C3             change_password@F1070 00C8             change_password@F1068 00CD  
               change_password@i 0034            __end_of_i2c_rep_start 10C3                 login_screen@oper 007A  
                       ??___bmul 0071                         ??___wmul 0074                       init_fetch0 112C  
           change_password@blink 002E             change_password@field 0033                    ??_init_ds1307 007A  
                    __pdataBANK0 006B                      __pdataBANK1 00A0             change_password@stage 0031  
                  ??_read_ds1307 0072                     _download_log 0BC3                    ??_init_config 007E  
                      ___fldiv@a 0026                        ___fldiv@b 002A                        ___latbits 0002  
                  __pcstackBANK0 0020                       ?_i2c_start 0070                       ?_i2c_write 0070  
                  ??_menu_screen 007A                        _dashboard 0AA9                 ___lwdiv@dividend 0072  
  __end_of_write_external_eeprom 130A                        _clear_log 11BD                         ?___fldiv 0026  
                       ?___awdiv 0070                         ?___awmod 0070                         ?___fltol 0040  
                       ?___lldiv 0070                         ?___lwdiv 0070                        _clock_reg 0066  
                       ?___lwmod 0070                        __pstrings 1000                        _attempt_s 0069  
            __end_of_init_ds1307 1119             __end_of_uart_tx_char 10B8              read_adc@adc_reg_val 0073  
            __end_of_read_ds1307 1280                 ___lwdiv@quotient 0074                        _init_clcd 10CE  
            __end_of_init_config 1255                        _init_uart 10E6                        _lock_flag 005B  
                  ?_write_ds1307 0078         ?_init_display_controller 0070                   ___wmul@product 0074  
    read_external_eeprom@address 0072                        clear_ram0 0003                       set_time@hh 002D  
                     set_time@mm 002E                 view_log@eep_addr 0047                       set_time@ss 002F  
                   ??_clcd_print 0077                     ??_clcd_putch 0079              __end_of_menu_screen 1800  
                   ??_clcd_write 0071                       ?_dashboard 0070                     _login_screen 0CE4  
                     ?_clear_log 0070                   _uart_tx_string 1206                        _my_strcmp 130A  
                   dashboard@key 004E                    download_log@i 007B              _change_password$376 0025  
                    __stringbase 1012                ___wmul@multiplier 0070                        _user_pass 005E  
                    ??_i2c_start 0070               __end_of_clcd_print 12DA                      ??_i2c_write 0070  
             __end_of_clcd_putch 1107               __end_of_clcd_write 13A3                       ?_init_clcd 0070  
                     ?_init_uart 0070                   ??_write_ds1307 0079              _init_digital_keypad 108F  
                       _i2c_read 119C                         _i2c_stop 10A5                get_time@clock_reg 0074  
              set_time@clock_reg 0027           __end_of_uart_tx_string 122C                    set_time@blink 002B  
                  set_time@field 0030                  login_screen@key 0020                       ?_my_strcmp 0070  
   __end_of_read_external_eeprom 12AB             ?_init_digital_keypad 0070                      _init_ds1307 1107  
             __end_of__stringtab 1012       change_password@confirm_pwd 0020                      _read_ds1307 1255  
                    _init_config 122C                         ___xxtofl 000B                  ___lwdiv@divisor 0070  
                ___lwdiv@counter 0076                         __ptext10 10E6                         __ptext11 133B  
                       __ptext20 1206                         __ptext12 15C3                         __ptext21 10AE  
                       __ptext13 1107                         __ptext30 10B8                         __ptext22 1280  
                       __ptext14 113F                         __ptext31 10A5                         __ptext23 0AA9  
                       __ptext15 108F                         __ptext40 00C1                         __ptext32 109C  
                       __ptext24 09FC                         __ptext16 10CE                         __ptext41 11BD  
                       __ptext33 119C                         __ptext25 12DA                         __ptext17 14FD  
                       __ptext42 0E4A                         __ptext34 10D9                         __ptext26 115D  
                       __ptext18 1095                         __ptext43 09D2                         __ptext35 1454  
                       __ptext27 117C                         __ptext19 0BC3                         __ptext44 130A  
                       __ptext36 000B                         __ptext28 1255                         __ptext45 10F6  
                       __ptext37 13DA                         __ptext29 10C3                         __ptext46 12AB  
                       __ptext38 1412                         __ptext47 136D                         __ptext39 1627  
                       _get_time 117C                      _menu_screen 1727                         _attempts 006D  
                    _menu_option 005A                         _init_i2c 133B                         _init_adc 1095  
                       _read_adc 115D          read_digital_keypad@mode 0071          read_digital_keypad@once 006B  
                ?_uart_tx_string 0075                      _login_delay 005C                      ??_dashboard 004A  
          display_time@clock_reg 0077                      _login_index 005D                      ??_clear_log 0077  
                  ??_store_event 0075                ??_change_password 007B                         _set_time 04D2  
                       _prev_pos 0059                         _view_log 028B            ??_init_digital_keypad 0070  
        change_password@main_pwd 007A                        view_log@i 0042                         init_ram0 1130  
                    ??_init_clcd 0076                      ??_init_uart 0070                 ___lwmod@dividend 0072  
               ___lldiv@dividend 0074                 uart_tx_char@byte 0074                        stringcode 100A  
                   _uart_tx_char 10AE            download_log@total_log 007A                      ??_my_strcmp 0072  
           __end_of_write_ds1307 115D              _read_digital_keypad 09D2              __end_of_store_event 0AA9  
               ___lldiv@quotient 0079                  ___lwmod@divisor 0070                  ___lwmod@counter 0074  
                       stringtab 1000             ?_read_digital_keypad 0070                 write_ds1307@addr 0079  
               write_ds1307@data 0078             _read_external_eeprom 1280  
